
double-float.riscv:     file format elf64-littleriscv


Disassembly of section .text:

00000000000100b0 <_start>:
   100b0:	00003197          	auipc	gp,0x3
   100b4:	f2018193          	addi	gp,gp,-224 # 12fd0 <__global_pointer$>
   100b8:	81818513          	addi	a0,gp,-2024 # 127e8 <_edata>
   100bc:	86818613          	addi	a2,gp,-1944 # 12838 <_end>
   100c0:	40a60633          	sub	a2,a2,a0
   100c4:	00000593          	li	a1,0
   100c8:	4cc010ef          	jal	ra,11594 <memset>
   100cc:	00001517          	auipc	a0,0x1
   100d0:	3a850513          	addi	a0,a0,936 # 11474 <__libc_fini_array>
   100d4:	00001097          	auipc	ra,0x1
   100d8:	34c080e7          	jalr	844(ra) # 11420 <atexit>
   100dc:	00001097          	auipc	ra,0x1
   100e0:	410080e7          	jalr	1040(ra) # 114ec <__libc_init_array>
   100e4:	00012503          	lw	a0,0(sp)
   100e8:	00810593          	addi	a1,sp,8
   100ec:	00000613          	li	a2,0
   100f0:	00000097          	auipc	ra,0x0
   100f4:	10c080e7          	jalr	268(ra) # 101fc <main>
   100f8:	00001317          	auipc	t1,0x1
   100fc:	34030067          	jr	832(t1) # 11438 <exit>

0000000000010100 <_fini>:
   10100:	00008067          	ret

0000000000010104 <deregister_tm_clones>:
   10104:	00012537          	lui	a0,0x12
   10108:	000127b7          	lui	a5,0x12
   1010c:	7d050713          	addi	a4,a0,2000 # 127d0 <__TMC_END__>
   10110:	7d078793          	addi	a5,a5,2000 # 127d0 <__TMC_END__>
   10114:	00e78c63          	beq	a5,a4,1012c <deregister_tm_clones+0x28>
   10118:	00000337          	lui	t1,0x0
   1011c:	00030313          	mv	t1,t1
   10120:	00030663          	beqz	t1,1012c <deregister_tm_clones+0x28>
   10124:	7d050513          	addi	a0,a0,2000
   10128:	00030067          	jr	t1
   1012c:	00008067          	ret

0000000000010130 <register_tm_clones>:
   10130:	000127b7          	lui	a5,0x12
   10134:	00012537          	lui	a0,0x12
   10138:	7d078593          	addi	a1,a5,2000 # 127d0 <__TMC_END__>
   1013c:	7d050793          	addi	a5,a0,2000 # 127d0 <__TMC_END__>
   10140:	40f585b3          	sub	a1,a1,a5
   10144:	4035d593          	srai	a1,a1,0x3
   10148:	03f5d793          	srli	a5,a1,0x3f
   1014c:	00b785b3          	add	a1,a5,a1
   10150:	4015d593          	srai	a1,a1,0x1
   10154:	00058c63          	beqz	a1,1016c <register_tm_clones+0x3c>
   10158:	00000337          	lui	t1,0x0
   1015c:	00030313          	mv	t1,t1
   10160:	00030663          	beqz	t1,1016c <register_tm_clones+0x3c>
   10164:	7d050513          	addi	a0,a0,2000
   10168:	00030067          	jr	t1
   1016c:	00008067          	ret

0000000000010170 <__do_global_dtors_aux>:
   10170:	8201c703          	lbu	a4,-2016(gp) # 127f0 <completed.5182>
   10174:	04071663          	bnez	a4,101c0 <__do_global_dtors_aux+0x50>
   10178:	ff010113          	addi	sp,sp,-16
   1017c:	00813023          	sd	s0,0(sp)
   10180:	00113423          	sd	ra,8(sp)
   10184:	00078413          	mv	s0,a5
   10188:	f7dff0ef          	jal	ra,10104 <deregister_tm_clones>
   1018c:	000007b7          	lui	a5,0x0
   10190:	00078793          	mv	a5,a5
   10194:	00078a63          	beqz	a5,101a8 <__do_global_dtors_aux+0x38>
   10198:	00012537          	lui	a0,0x12
   1019c:	fe050513          	addi	a0,a0,-32 # 11fe0 <__EH_FRAME_BEGIN__>
   101a0:	ffff0097          	auipc	ra,0xffff0
   101a4:	e60080e7          	jalr	-416(ra) # 0 <_start-0x100b0>
   101a8:	00100793          	li	a5,1
   101ac:	82f18023          	sb	a5,-2016(gp) # 127f0 <completed.5182>
   101b0:	00813083          	ld	ra,8(sp)
   101b4:	00013403          	ld	s0,0(sp)
   101b8:	01010113          	addi	sp,sp,16
   101bc:	00008067          	ret
   101c0:	00008067          	ret

00000000000101c4 <frame_dummy>:
   101c4:	000007b7          	lui	a5,0x0
   101c8:	00078793          	mv	a5,a5
   101cc:	02078663          	beqz	a5,101f8 <frame_dummy+0x34>
   101d0:	000125b7          	lui	a1,0x12
   101d4:	00012537          	lui	a0,0x12
   101d8:	ff010113          	addi	sp,sp,-16
   101dc:	7f858593          	addi	a1,a1,2040 # 127f8 <object.5187>
   101e0:	fe050513          	addi	a0,a0,-32 # 11fe0 <__EH_FRAME_BEGIN__>
   101e4:	00113423          	sd	ra,8(sp)
   101e8:	ffff0097          	auipc	ra,0xffff0
   101ec:	e18080e7          	jalr	-488(ra) # 0 <_start-0x100b0>
   101f0:	00813083          	ld	ra,8(sp)
   101f4:	01010113          	addi	sp,sp,16
   101f8:	f39ff06f          	j	10130 <register_tm_clones>

00000000000101fc <main>:
   101fc:	fd010113          	addi	sp,sp,-48
   10200:	02113423          	sd	ra,40(sp)
   10204:	02813023          	sd	s0,32(sp)
   10208:	00913c23          	sd	s1,24(sp)
   1020c:	03010413          	addi	s0,sp,48
   10210:	fc042e23          	sw	zero,-36(s0)
   10214:	00400793          	li	a5,4
   10218:	fcf42e23          	sw	a5,-36(s0)
   1021c:	0740006f          	j	10290 <main+0x94>
   10220:	000127b7          	lui	a5,0x12
   10224:	fdc42703          	lw	a4,-36(s0)
   10228:	00371713          	slli	a4,a4,0x3
   1022c:	01078793          	addi	a5,a5,16 # 12010 <__fini_array_end>
   10230:	00f707b3          	add	a5,a4,a5
   10234:	0007b483          	ld	s1,0(a5)
   10238:	fdc42503          	lw	a0,-36(s0)
   1023c:	6d1000ef          	jal	ra,1110c <__floatsidf>
   10240:	00050713          	mv	a4,a0
   10244:	000127b7          	lui	a5,0x12
   10248:	e987b583          	ld	a1,-360(a5) # 11e98 <__errno+0xc>
   1024c:	00070513          	mv	a0,a4
   10250:	6b4000ef          	jal	ra,10904 <__muldf3>
   10254:	00050793          	mv	a5,a0
   10258:	00078593          	mv	a1,a5
   1025c:	00048513          	mv	a0,s1
   10260:	224000ef          	jal	ra,10484 <__adddf3>
   10264:	00050793          	mv	a5,a0
   10268:	00078693          	mv	a3,a5
   1026c:	000127b7          	lui	a5,0x12
   10270:	fdc42703          	lw	a4,-36(s0)
   10274:	00371713          	slli	a4,a4,0x3
   10278:	01078793          	addi	a5,a5,16 # 12010 <__fini_array_end>
   1027c:	00f707b3          	add	a5,a4,a5
   10280:	00d7b023          	sd	a3,0(a5)
   10284:	fdc42783          	lw	a5,-36(s0)
   10288:	fff7879b          	addiw	a5,a5,-1
   1028c:	fcf42e23          	sw	a5,-36(s0)
   10290:	fdc42783          	lw	a5,-36(s0)
   10294:	0007879b          	sext.w	a5,a5
   10298:	f807d4e3          	bgez	a5,10220 <main+0x24>
   1029c:	00500793          	li	a5,5
   102a0:	fcf42e23          	sw	a5,-36(s0)
   102a4:	0740006f          	j	10318 <main+0x11c>
   102a8:	000127b7          	lui	a5,0x12
   102ac:	fdc42703          	lw	a4,-36(s0)
   102b0:	00371713          	slli	a4,a4,0x3
   102b4:	01078793          	addi	a5,a5,16 # 12010 <__fini_array_end>
   102b8:	00f707b3          	add	a5,a4,a5
   102bc:	0007b483          	ld	s1,0(a5)
   102c0:	fdc42503          	lw	a0,-36(s0)
   102c4:	649000ef          	jal	ra,1110c <__floatsidf>
   102c8:	00050713          	mv	a4,a0
   102cc:	000127b7          	lui	a5,0x12
   102d0:	e987b583          	ld	a1,-360(a5) # 11e98 <__errno+0xc>
   102d4:	00070513          	mv	a0,a4
   102d8:	62c000ef          	jal	ra,10904 <__muldf3>
   102dc:	00050793          	mv	a5,a0
   102e0:	00078593          	mv	a1,a5
   102e4:	00048513          	mv	a0,s1
   102e8:	1a9000ef          	jal	ra,10c90 <__subdf3>
   102ec:	00050793          	mv	a5,a0
   102f0:	00078693          	mv	a3,a5
   102f4:	000127b7          	lui	a5,0x12
   102f8:	fdc42703          	lw	a4,-36(s0)
   102fc:	00371713          	slli	a4,a4,0x3
   10300:	01078793          	addi	a5,a5,16 # 12010 <__fini_array_end>
   10304:	00f707b3          	add	a5,a4,a5
   10308:	00d7b023          	sd	a3,0(a5)
   1030c:	fdc42783          	lw	a5,-36(s0)
   10310:	0017879b          	addiw	a5,a5,1
   10314:	fcf42e23          	sw	a5,-36(s0)
   10318:	fdc42783          	lw	a5,-36(s0)
   1031c:	0007871b          	sext.w	a4,a5
   10320:	00900793          	li	a5,9
   10324:	f8e7d2e3          	ble	a4,a5,102a8 <main+0xac>
   10328:	00400793          	li	a5,4
   1032c:	fcf42e23          	sw	a5,-36(s0)
   10330:	0880006f          	j	103b8 <main+0x1bc>
   10334:	000127b7          	lui	a5,0x12
   10338:	fdc42703          	lw	a4,-36(s0)
   1033c:	00271713          	slli	a4,a4,0x2
   10340:	06078793          	addi	a5,a5,96 # 12060 <result_float>
   10344:	00f707b3          	add	a5,a4,a5
   10348:	0007a783          	lw	a5,0(a5)
   1034c:	00078513          	mv	a0,a5
   10350:	64d000ef          	jal	ra,1119c <__extendsfdf2>
   10354:	00050493          	mv	s1,a0
   10358:	fdc42503          	lw	a0,-36(s0)
   1035c:	5b1000ef          	jal	ra,1110c <__floatsidf>
   10360:	00050713          	mv	a4,a0
   10364:	000127b7          	lui	a5,0x12
   10368:	e987b583          	ld	a1,-360(a5) # 11e98 <__errno+0xc>
   1036c:	00070513          	mv	a0,a4
   10370:	594000ef          	jal	ra,10904 <__muldf3>
   10374:	00050793          	mv	a5,a0
   10378:	00078593          	mv	a1,a5
   1037c:	00048513          	mv	a0,s1
   10380:	104000ef          	jal	ra,10484 <__adddf3>
   10384:	00050793          	mv	a5,a0
   10388:	00078513          	mv	a0,a5
   1038c:	6d5000ef          	jal	ra,11260 <__truncdfsf2>
   10390:	00050693          	mv	a3,a0
   10394:	000127b7          	lui	a5,0x12
   10398:	fdc42703          	lw	a4,-36(s0)
   1039c:	00271713          	slli	a4,a4,0x2
   103a0:	06078793          	addi	a5,a5,96 # 12060 <result_float>
   103a4:	00f707b3          	add	a5,a4,a5
   103a8:	00d7a023          	sw	a3,0(a5)
   103ac:	fdc42783          	lw	a5,-36(s0)
   103b0:	fff7879b          	addiw	a5,a5,-1
   103b4:	fcf42e23          	sw	a5,-36(s0)
   103b8:	fdc42783          	lw	a5,-36(s0)
   103bc:	0007879b          	sext.w	a5,a5
   103c0:	f607dae3          	bgez	a5,10334 <main+0x138>
   103c4:	00500793          	li	a5,5
   103c8:	fcf42e23          	sw	a5,-36(s0)
   103cc:	0880006f          	j	10454 <main+0x258>
   103d0:	000127b7          	lui	a5,0x12
   103d4:	fdc42703          	lw	a4,-36(s0)
   103d8:	00271713          	slli	a4,a4,0x2
   103dc:	06078793          	addi	a5,a5,96 # 12060 <result_float>
   103e0:	00f707b3          	add	a5,a4,a5
   103e4:	0007a783          	lw	a5,0(a5)
   103e8:	00078513          	mv	a0,a5
   103ec:	5b1000ef          	jal	ra,1119c <__extendsfdf2>
   103f0:	00050493          	mv	s1,a0
   103f4:	fdc42503          	lw	a0,-36(s0)
   103f8:	515000ef          	jal	ra,1110c <__floatsidf>
   103fc:	00050713          	mv	a4,a0
   10400:	000127b7          	lui	a5,0x12
   10404:	e987b583          	ld	a1,-360(a5) # 11e98 <__errno+0xc>
   10408:	00070513          	mv	a0,a4
   1040c:	4f8000ef          	jal	ra,10904 <__muldf3>
   10410:	00050793          	mv	a5,a0
   10414:	00078593          	mv	a1,a5
   10418:	00048513          	mv	a0,s1
   1041c:	075000ef          	jal	ra,10c90 <__subdf3>
   10420:	00050793          	mv	a5,a0
   10424:	00078513          	mv	a0,a5
   10428:	639000ef          	jal	ra,11260 <__truncdfsf2>
   1042c:	00050693          	mv	a3,a0
   10430:	000127b7          	lui	a5,0x12
   10434:	fdc42703          	lw	a4,-36(s0)
   10438:	00271713          	slli	a4,a4,0x2
   1043c:	06078793          	addi	a5,a5,96 # 12060 <result_float>
   10440:	00f707b3          	add	a5,a4,a5
   10444:	00d7a023          	sw	a3,0(a5)
   10448:	fdc42783          	lw	a5,-36(s0)
   1044c:	0017879b          	addiw	a5,a5,1
   10450:	fcf42e23          	sw	a5,-36(s0)
   10454:	fdc42783          	lw	a5,-36(s0)
   10458:	0007871b          	sext.w	a4,a5
   1045c:	00900793          	li	a5,9
   10460:	f6e7d8e3          	ble	a4,a5,103d0 <main+0x1d4>
   10464:	00000793          	li	a5,0
   10468:	00078513          	mv	a0,a5
   1046c:	02813083          	ld	ra,40(sp)
   10470:	02013403          	ld	s0,32(sp)
   10474:	01813483          	ld	s1,24(sp)
   10478:	03010113          	addi	sp,sp,48
   1047c:	00008067          	ret
   10480:	0000                	unimp
	...

0000000000010484 <__adddf3>:
   10484:	fe010113          	addi	sp,sp,-32
   10488:	fff00813          	li	a6,-1
   1048c:	00c85713          	srli	a4,a6,0xc
   10490:	0345d613          	srli	a2,a1,0x34
   10494:	00813823          	sd	s0,16(sp)
   10498:	03455413          	srli	s0,a0,0x34
   1049c:	00a777b3          	and	a5,a4,a0
   104a0:	01213023          	sd	s2,0(sp)
   104a4:	00b77733          	and	a4,a4,a1
   104a8:	7ff47413          	andi	s0,s0,2047
   104ac:	7ff67613          	andi	a2,a2,2047
   104b0:	00113c23          	sd	ra,24(sp)
   104b4:	00913423          	sd	s1,8(sp)
   104b8:	03f55913          	srli	s2,a0,0x3f
   104bc:	03f5d593          	srli	a1,a1,0x3f
   104c0:	00379793          	slli	a5,a5,0x3
   104c4:	00371713          	slli	a4,a4,0x3
   104c8:	40c406bb          	subw	a3,s0,a2
   104cc:	18b91a63          	bne	s2,a1,10660 <__adddf3+0x1dc>
   104d0:	0006859b          	sext.w	a1,a3
   104d4:	0ab05863          	blez	a1,10584 <__adddf3+0x100>
   104d8:	06061663          	bnez	a2,10544 <__adddf3+0xc0>
   104dc:	04070663          	beqz	a4,10528 <__adddf3+0xa4>
   104e0:	fff6859b          	addiw	a1,a3,-1
   104e4:	02059e63          	bnez	a1,10520 <__adddf3+0x9c>
   104e8:	00e787b3          	add	a5,a5,a4
   104ec:	00879713          	slli	a4,a5,0x8
   104f0:	02075c63          	bgez	a4,10528 <__adddf3+0xa4>
   104f4:	00140413          	addi	s0,s0,1
   104f8:	7ff00713          	li	a4,2047
   104fc:	34e40c63          	beq	s0,a4,10854 <__adddf3+0x3d0>
   10500:	1ff00713          	li	a4,511
   10504:	03671713          	slli	a4,a4,0x36
   10508:	0017f693          	andi	a3,a5,1
   1050c:	fff70713          	addi	a4,a4,-1
   10510:	0017d793          	srli	a5,a5,0x1
   10514:	00e7f7b3          	and	a5,a5,a4
   10518:	00d7e7b3          	or	a5,a5,a3
   1051c:	00c0006f          	j	10528 <__adddf3+0xa4>
   10520:	7ff00693          	li	a3,2047
   10524:	02d41a63          	bne	s0,a3,10558 <__adddf3+0xd4>
   10528:	0077f713          	andi	a4,a5,7
   1052c:	32070663          	beqz	a4,10858 <__adddf3+0x3d4>
   10530:	00f7f713          	andi	a4,a5,15
   10534:	00400693          	li	a3,4
   10538:	32d70063          	beq	a4,a3,10858 <__adddf3+0x3d4>
   1053c:	00478793          	addi	a5,a5,4
   10540:	3180006f          	j	10858 <__adddf3+0x3d4>
   10544:	7ff00693          	li	a3,2047
   10548:	fed400e3          	beq	s0,a3,10528 <__adddf3+0xa4>
   1054c:	00100693          	li	a3,1
   10550:	03769693          	slli	a3,a3,0x37
   10554:	00d76733          	or	a4,a4,a3
   10558:	03800693          	li	a3,56
   1055c:	00b6d663          	ble	a1,a3,10568 <__adddf3+0xe4>
   10560:	00100713          	li	a4,1
   10564:	f85ff06f          	j	104e8 <__adddf3+0x64>
   10568:	04000693          	li	a3,64
   1056c:	00b75633          	srl	a2,a4,a1
   10570:	40b685bb          	subw	a1,a3,a1
   10574:	00b71733          	sll	a4,a4,a1
   10578:	00e03733          	snez	a4,a4
   1057c:	00e66733          	or	a4,a2,a4
   10580:	f69ff06f          	j	104e8 <__adddf3+0x64>
   10584:	06058863          	beqz	a1,105f4 <__adddf3+0x170>
   10588:	02041463          	bnez	s0,105b0 <__adddf3+0x12c>
   1058c:	2a078a63          	beqz	a5,10840 <__adddf3+0x3bc>
   10590:	01059863          	bne	a1,a6,105a0 <__adddf3+0x11c>
   10594:	00e787b3          	add	a5,a5,a4
   10598:	00060413          	mv	s0,a2
   1059c:	f51ff06f          	j	104ec <__adddf3+0x68>
   105a0:	7ff00593          	li	a1,2047
   105a4:	34b61263          	bne	a2,a1,108e8 <__adddf3+0x464>
   105a8:	00070793          	mv	a5,a4
   105ac:	2100006f          	j	107bc <__adddf3+0x338>
   105b0:	7ff00593          	li	a1,2047
   105b4:	feb60ae3          	beq	a2,a1,105a8 <__adddf3+0x124>
   105b8:	00100593          	li	a1,1
   105bc:	03759593          	slli	a1,a1,0x37
   105c0:	40d006bb          	negw	a3,a3
   105c4:	00b7e7b3          	or	a5,a5,a1
   105c8:	03800593          	li	a1,56
   105cc:	00d5d663          	ble	a3,a1,105d8 <__adddf3+0x154>
   105d0:	00100793          	li	a5,1
   105d4:	fc1ff06f          	j	10594 <__adddf3+0x110>
   105d8:	04000593          	li	a1,64
   105dc:	00d7d533          	srl	a0,a5,a3
   105e0:	40d586bb          	subw	a3,a1,a3
   105e4:	00d797b3          	sll	a5,a5,a3
   105e8:	00f037b3          	snez	a5,a5
   105ec:	00f567b3          	or	a5,a0,a5
   105f0:	fa5ff06f          	j	10594 <__adddf3+0x110>
   105f4:	00140613          	addi	a2,s0,1
   105f8:	7ff67593          	andi	a1,a2,2047
   105fc:	00100693          	li	a3,1
   10600:	04b6c463          	blt	a3,a1,10648 <__adddf3+0x1c4>
   10604:	02041863          	bnez	s0,10634 <__adddf3+0x1b0>
   10608:	24078063          	beqz	a5,10848 <__adddf3+0x3c4>
   1060c:	f0070ee3          	beqz	a4,10528 <__adddf3+0xa4>
   10610:	00e787b3          	add	a5,a5,a4
   10614:	03769693          	slli	a3,a3,0x37
   10618:	00d7f6b3          	and	a3,a5,a3
   1061c:	f00686e3          	beqz	a3,10528 <__adddf3+0xa4>
   10620:	03781813          	slli	a6,a6,0x37
   10624:	fff80813          	addi	a6,a6,-1
   10628:	0107f7b3          	and	a5,a5,a6
   1062c:	00100413          	li	s0,1
   10630:	ef9ff06f          	j	10528 <__adddf3+0xa4>
   10634:	f6078ae3          	beqz	a5,105a8 <__adddf3+0x124>
   10638:	18070263          	beqz	a4,107bc <__adddf3+0x338>
   1063c:	03669793          	slli	a5,a3,0x36
   10640:	7ff00413          	li	s0,2047
   10644:	13c0006f          	j	10780 <__adddf3+0x2fc>
   10648:	7ff00693          	li	a3,2047
   1064c:	20d60263          	beq	a2,a3,10850 <__adddf3+0x3cc>
   10650:	00e787b3          	add	a5,a5,a4
   10654:	0017d793          	srli	a5,a5,0x1
   10658:	00060413          	mv	s0,a2
   1065c:	ecdff06f          	j	10528 <__adddf3+0xa4>
   10660:	0006851b          	sext.w	a0,a3
   10664:	08a05263          	blez	a0,106e8 <__adddf3+0x264>
   10668:	04061663          	bnez	a2,106b4 <__adddf3+0x230>
   1066c:	ea070ee3          	beqz	a4,10528 <__adddf3+0xa4>
   10670:	fff6851b          	addiw	a0,a3,-1
   10674:	02051463          	bnez	a0,1069c <__adddf3+0x218>
   10678:	40e787b3          	sub	a5,a5,a4
   1067c:	00090593          	mv	a1,s2
   10680:	00879713          	slli	a4,a5,0x8
   10684:	00058913          	mv	s2,a1
   10688:	ea0750e3          	bgez	a4,10528 <__adddf3+0xa4>
   1068c:	fff00493          	li	s1,-1
   10690:	0094d493          	srli	s1,s1,0x9
   10694:	0097f4b3          	and	s1,a5,s1
   10698:	1440006f          	j	107dc <__adddf3+0x358>
   1069c:	7ff00693          	li	a3,2047
   106a0:	e8d404e3          	beq	s0,a3,10528 <__adddf3+0xa4>
   106a4:	03800693          	li	a3,56
   106a8:	02a6d263          	ble	a0,a3,106cc <__adddf3+0x248>
   106ac:	00100713          	li	a4,1
   106b0:	fc9ff06f          	j	10678 <__adddf3+0x1f4>
   106b4:	7ff00693          	li	a3,2047
   106b8:	e6d408e3          	beq	s0,a3,10528 <__adddf3+0xa4>
   106bc:	00100693          	li	a3,1
   106c0:	03769693          	slli	a3,a3,0x37
   106c4:	00d76733          	or	a4,a4,a3
   106c8:	fddff06f          	j	106a4 <__adddf3+0x220>
   106cc:	04000693          	li	a3,64
   106d0:	00a75633          	srl	a2,a4,a0
   106d4:	40a6853b          	subw	a0,a3,a0
   106d8:	00a71733          	sll	a4,a4,a0
   106dc:	00e03733          	snez	a4,a4
   106e0:	00e66733          	or	a4,a2,a4
   106e4:	f95ff06f          	j	10678 <__adddf3+0x1f4>
   106e8:	06050a63          	beqz	a0,1075c <__adddf3+0x2d8>
   106ec:	02041663          	bnez	s0,10718 <__adddf3+0x294>
   106f0:	1e078063          	beqz	a5,108d0 <__adddf3+0x44c>
   106f4:	01051863          	bne	a0,a6,10704 <__adddf3+0x280>
   106f8:	40f707b3          	sub	a5,a4,a5
   106fc:	00060413          	mv	s0,a2
   10700:	f81ff06f          	j	10680 <__adddf3+0x1fc>
   10704:	7ff00513          	li	a0,2047
   10708:	1ea61663          	bne	a2,a0,108f4 <__adddf3+0x470>
   1070c:	00070793          	mv	a5,a4
   10710:	7ff00413          	li	s0,2047
   10714:	1c40006f          	j	108d8 <__adddf3+0x454>
   10718:	7ff00513          	li	a0,2047
   1071c:	fea608e3          	beq	a2,a0,1070c <__adddf3+0x288>
   10720:	00100513          	li	a0,1
   10724:	03751513          	slli	a0,a0,0x37
   10728:	40d006bb          	negw	a3,a3
   1072c:	00a7e7b3          	or	a5,a5,a0
   10730:	03800513          	li	a0,56
   10734:	00d55663          	ble	a3,a0,10740 <__adddf3+0x2bc>
   10738:	00100793          	li	a5,1
   1073c:	fbdff06f          	j	106f8 <__adddf3+0x274>
   10740:	04000513          	li	a0,64
   10744:	00d7d833          	srl	a6,a5,a3
   10748:	40d506bb          	subw	a3,a0,a3
   1074c:	00d797b3          	sll	a5,a5,a3
   10750:	00f037b3          	snez	a5,a5
   10754:	00f867b3          	or	a5,a6,a5
   10758:	fa1ff06f          	j	106f8 <__adddf3+0x274>
   1075c:	00140613          	addi	a2,s0,1
   10760:	7ff67613          	andi	a2,a2,2047
   10764:	00100693          	li	a3,1
   10768:	04c6ce63          	blt	a3,a2,107c4 <__adddf3+0x340>
   1076c:	04041063          	bnez	s0,107ac <__adddf3+0x328>
   10770:	00079c63          	bnez	a5,10788 <__adddf3+0x304>
   10774:	00070793          	mv	a5,a4
   10778:	16071063          	bnez	a4,108d8 <__adddf3+0x454>
   1077c:	00000793          	li	a5,0
   10780:	00000913          	li	s2,0
   10784:	0d40006f          	j	10858 <__adddf3+0x3d4>
   10788:	da0700e3          	beqz	a4,10528 <__adddf3+0xa4>
   1078c:	40e78633          	sub	a2,a5,a4
   10790:	03769693          	slli	a3,a3,0x37
   10794:	00d676b3          	and	a3,a2,a3
   10798:	40f707b3          	sub	a5,a4,a5
   1079c:	12069e63          	bnez	a3,108d8 <__adddf3+0x454>
   107a0:	fc060ee3          	beqz	a2,1077c <__adddf3+0x2f8>
   107a4:	00060793          	mv	a5,a2
   107a8:	d81ff06f          	j	10528 <__adddf3+0xa4>
   107ac:	e80796e3          	bnez	a5,10638 <__adddf3+0x1b4>
   107b0:	e80706e3          	beqz	a4,1063c <__adddf3+0x1b8>
   107b4:	00070793          	mv	a5,a4
   107b8:	00058913          	mv	s2,a1
   107bc:	7ff00413          	li	s0,2047
   107c0:	d69ff06f          	j	10528 <__adddf3+0xa4>
   107c4:	40e784b3          	sub	s1,a5,a4
   107c8:	03769693          	slli	a3,a3,0x37
   107cc:	00d4f6b3          	and	a3,s1,a3
   107d0:	04068463          	beqz	a3,10818 <__adddf3+0x394>
   107d4:	40f704b3          	sub	s1,a4,a5
   107d8:	00058913          	mv	s2,a1
   107dc:	00048513          	mv	a0,s1
   107e0:	401000ef          	jal	ra,113e0 <__clzdi2>
   107e4:	ff85079b          	addiw	a5,a0,-8
   107e8:	00f494b3          	sll	s1,s1,a5
   107ec:	0287ce63          	blt	a5,s0,10828 <__adddf3+0x3a4>
   107f0:	4087843b          	subw	s0,a5,s0
   107f4:	0014041b          	addiw	s0,s0,1
   107f8:	04000513          	li	a0,64
   107fc:	0084d7b3          	srl	a5,s1,s0
   10800:	4085043b          	subw	s0,a0,s0
   10804:	008494b3          	sll	s1,s1,s0
   10808:	009034b3          	snez	s1,s1
   1080c:	0097e7b3          	or	a5,a5,s1
   10810:	00000413          	li	s0,0
   10814:	d15ff06f          	j	10528 <__adddf3+0xa4>
   10818:	fc0492e3          	bnez	s1,107dc <__adddf3+0x358>
   1081c:	00000793          	li	a5,0
   10820:	00000413          	li	s0,0
   10824:	f5dff06f          	j	10780 <__adddf3+0x2fc>
   10828:	40f40433          	sub	s0,s0,a5
   1082c:	fff00793          	li	a5,-1
   10830:	03779793          	slli	a5,a5,0x37
   10834:	fff78793          	addi	a5,a5,-1
   10838:	00f4f7b3          	and	a5,s1,a5
   1083c:	cedff06f          	j	10528 <__adddf3+0xa4>
   10840:	00070793          	mv	a5,a4
   10844:	e15ff06f          	j	10658 <__adddf3+0x1d4>
   10848:	00070793          	mv	a5,a4
   1084c:	cddff06f          	j	10528 <__adddf3+0xa4>
   10850:	7ff00413          	li	s0,2047
   10854:	00000793          	li	a5,0
   10858:	00879713          	slli	a4,a5,0x8
   1085c:	02075063          	bgez	a4,1087c <__adddf3+0x3f8>
   10860:	00140413          	addi	s0,s0,1
   10864:	7ff00713          	li	a4,2047
   10868:	06e40c63          	beq	s0,a4,108e0 <__adddf3+0x45c>
   1086c:	fff00713          	li	a4,-1
   10870:	03771713          	slli	a4,a4,0x37
   10874:	fff70713          	addi	a4,a4,-1
   10878:	00e7f7b3          	and	a5,a5,a4
   1087c:	7ff00713          	li	a4,2047
   10880:	0037d793          	srli	a5,a5,0x3
   10884:	00e41a63          	bne	s0,a4,10898 <__adddf3+0x414>
   10888:	00078863          	beqz	a5,10898 <__adddf3+0x414>
   1088c:	00100793          	li	a5,1
   10890:	03379793          	slli	a5,a5,0x33
   10894:	00000913          	li	s2,0
   10898:	7ff47513          	andi	a0,s0,2047
   1089c:	fff00413          	li	s0,-1
   108a0:	00c45413          	srli	s0,s0,0xc
   108a4:	0087f7b3          	and	a5,a5,s0
   108a8:	01813083          	ld	ra,24(sp)
   108ac:	01013403          	ld	s0,16(sp)
   108b0:	03451513          	slli	a0,a0,0x34
   108b4:	03f91913          	slli	s2,s2,0x3f
   108b8:	00a7e533          	or	a0,a5,a0
   108bc:	01256533          	or	a0,a0,s2
   108c0:	00813483          	ld	s1,8(sp)
   108c4:	00013903          	ld	s2,0(sp)
   108c8:	02010113          	addi	sp,sp,32
   108cc:	00008067          	ret
   108d0:	00070793          	mv	a5,a4
   108d4:	00060413          	mv	s0,a2
   108d8:	00058913          	mv	s2,a1
   108dc:	c4dff06f          	j	10528 <__adddf3+0xa4>
   108e0:	00000793          	li	a5,0
   108e4:	f99ff06f          	j	1087c <__adddf3+0x3f8>
   108e8:	fff6c693          	not	a3,a3
   108ec:	0006869b          	sext.w	a3,a3
   108f0:	cd9ff06f          	j	105c8 <__adddf3+0x144>
   108f4:	fff6c693          	not	a3,a3
   108f8:	0006869b          	sext.w	a3,a3
   108fc:	e35ff06f          	j	10730 <__adddf3+0x2ac>
   10900:	0000                	unimp
	...

0000000000010904 <__muldf3>:
   10904:	fb010113          	addi	sp,sp,-80
   10908:	03213823          	sd	s2,48(sp)
   1090c:	03455913          	srli	s2,a0,0x34
   10910:	02913c23          	sd	s1,56(sp)
   10914:	7ff97913          	andi	s2,s2,2047
   10918:	fff00493          	li	s1,-1
   1091c:	03313423          	sd	s3,40(sp)
   10920:	01713423          	sd	s7,8(sp)
   10924:	00c4d493          	srli	s1,s1,0xc
   10928:	04113423          	sd	ra,72(sp)
   1092c:	04813023          	sd	s0,64(sp)
   10930:	03413023          	sd	s4,32(sp)
   10934:	01513c23          	sd	s5,24(sp)
   10938:	01613823          	sd	s6,16(sp)
   1093c:	0009079b          	sext.w	a5,s2
   10940:	00058b93          	mv	s7,a1
   10944:	00a4f4b3          	and	s1,s1,a0
   10948:	03f55993          	srli	s3,a0,0x3f
   1094c:	08078e63          	beqz	a5,109e8 <__muldf3+0xe4>
   10950:	7ff00713          	li	a4,2047
   10954:	0ae78c63          	beq	a5,a4,10a0c <__muldf3+0x108>
   10958:	00100793          	li	a5,1
   1095c:	00349493          	slli	s1,s1,0x3
   10960:	03779793          	slli	a5,a5,0x37
   10964:	00f4e4b3          	or	s1,s1,a5
   10968:	c0190913          	addi	s2,s2,-1023
   1096c:	00000a93          	li	s5,0
   10970:	034bd513          	srli	a0,s7,0x34
   10974:	fff00413          	li	s0,-1
   10978:	7ff57513          	andi	a0,a0,2047
   1097c:	00c45413          	srli	s0,s0,0xc
   10980:	0005079b          	sext.w	a5,a0
   10984:	01747433          	and	s0,s0,s7
   10988:	03fbdb93          	srli	s7,s7,0x3f
   1098c:	0a078063          	beqz	a5,10a2c <__muldf3+0x128>
   10990:	7ff00713          	li	a4,2047
   10994:	0ae78e63          	beq	a5,a4,10a50 <__muldf3+0x14c>
   10998:	00100793          	li	a5,1
   1099c:	00341413          	slli	s0,s0,0x3
   109a0:	03779793          	slli	a5,a5,0x37
   109a4:	00f46433          	or	s0,s0,a5
   109a8:	c0150513          	addi	a0,a0,-1023
   109ac:	00000693          	li	a3,0
   109b0:	002a9793          	slli	a5,s5,0x2
   109b4:	00d7e7b3          	or	a5,a5,a3
   109b8:	00a90933          	add	s2,s2,a0
   109bc:	fff78793          	addi	a5,a5,-1
   109c0:	00e00713          	li	a4,14
   109c4:	0179ca33          	xor	s4,s3,s7
   109c8:	00190b13          	addi	s6,s2,1
   109cc:	0af76263          	bltu	a4,a5,10a70 <__muldf3+0x16c>
   109d0:	00012737          	lui	a4,0x12
   109d4:	00279793          	slli	a5,a5,0x2
   109d8:	ea070713          	addi	a4,a4,-352 # 11ea0 <__errno+0x14>
   109dc:	00e787b3          	add	a5,a5,a4
   109e0:	0007a783          	lw	a5,0(a5)
   109e4:	00078067          	jr	a5
   109e8:	02048c63          	beqz	s1,10a20 <__muldf3+0x11c>
   109ec:	00048513          	mv	a0,s1
   109f0:	1f1000ef          	jal	ra,113e0 <__clzdi2>
   109f4:	0005051b          	sext.w	a0,a0
   109f8:	ff85079b          	addiw	a5,a0,-8
   109fc:	c0d00913          	li	s2,-1011
   10a00:	00f494b3          	sll	s1,s1,a5
   10a04:	40a90933          	sub	s2,s2,a0
   10a08:	f65ff06f          	j	1096c <__muldf3+0x68>
   10a0c:	7ff00913          	li	s2,2047
   10a10:	00200a93          	li	s5,2
   10a14:	f4048ee3          	beqz	s1,10970 <__muldf3+0x6c>
   10a18:	00300a93          	li	s5,3
   10a1c:	f55ff06f          	j	10970 <__muldf3+0x6c>
   10a20:	00000913          	li	s2,0
   10a24:	00100a93          	li	s5,1
   10a28:	f49ff06f          	j	10970 <__muldf3+0x6c>
   10a2c:	02040c63          	beqz	s0,10a64 <__muldf3+0x160>
   10a30:	00040513          	mv	a0,s0
   10a34:	1ad000ef          	jal	ra,113e0 <__clzdi2>
   10a38:	0005051b          	sext.w	a0,a0
   10a3c:	ff85079b          	addiw	a5,a0,-8
   10a40:	00f41433          	sll	s0,s0,a5
   10a44:	c0d00793          	li	a5,-1011
   10a48:	40a78533          	sub	a0,a5,a0
   10a4c:	f61ff06f          	j	109ac <__muldf3+0xa8>
   10a50:	7ff00513          	li	a0,2047
   10a54:	00200693          	li	a3,2
   10a58:	f4040ce3          	beqz	s0,109b0 <__muldf3+0xac>
   10a5c:	00300693          	li	a3,3
   10a60:	f51ff06f          	j	109b0 <__muldf3+0xac>
   10a64:	00000513          	li	a0,0
   10a68:	00100693          	li	a3,1
   10a6c:	f45ff06f          	j	109b0 <__muldf3+0xac>
   10a70:	fff00793          	li	a5,-1
   10a74:	0207d793          	srli	a5,a5,0x20
   10a78:	0204da93          	srli	s5,s1,0x20
   10a7c:	02045b93          	srli	s7,s0,0x20
   10a80:	00f4f4b3          	and	s1,s1,a5
   10a84:	00f47433          	and	s0,s0,a5
   10a88:	00040593          	mv	a1,s0
   10a8c:	00048513          	mv	a0,s1
   10a90:	129000ef          	jal	ra,113b8 <__muldi3>
   10a94:	00040593          	mv	a1,s0
   10a98:	00050993          	mv	s3,a0
   10a9c:	000a8513          	mv	a0,s5
   10aa0:	119000ef          	jal	ra,113b8 <__muldi3>
   10aa4:	00050413          	mv	s0,a0
   10aa8:	000b8593          	mv	a1,s7
   10aac:	000a8513          	mv	a0,s5
   10ab0:	109000ef          	jal	ra,113b8 <__muldi3>
   10ab4:	00050a93          	mv	s5,a0
   10ab8:	00048593          	mv	a1,s1
   10abc:	000b8513          	mv	a0,s7
   10ac0:	0f9000ef          	jal	ra,113b8 <__muldi3>
   10ac4:	00850533          	add	a0,a0,s0
   10ac8:	0209d793          	srli	a5,s3,0x20
   10acc:	00a78533          	add	a0,a5,a0
   10ad0:	00857863          	bleu	s0,a0,10ae0 <__muldf3+0x1dc>
   10ad4:	00100793          	li	a5,1
   10ad8:	02079793          	slli	a5,a5,0x20
   10adc:	00fa8ab3          	add	s5,s5,a5
   10ae0:	fff00713          	li	a4,-1
   10ae4:	02075713          	srli	a4,a4,0x20
   10ae8:	00e577b3          	and	a5,a0,a4
   10aec:	02079793          	slli	a5,a5,0x20
   10af0:	00e9f9b3          	and	s3,s3,a4
   10af4:	013787b3          	add	a5,a5,s3
   10af8:	00979413          	slli	s0,a5,0x9
   10afc:	00803433          	snez	s0,s0
   10b00:	0377d793          	srli	a5,a5,0x37
   10b04:	00f467b3          	or	a5,s0,a5
   10b08:	02055413          	srli	s0,a0,0x20
   10b0c:	01540433          	add	s0,s0,s5
   10b10:	00941413          	slli	s0,s0,0x9
   10b14:	00f46433          	or	s0,s0,a5
   10b18:	00741793          	slli	a5,s0,0x7
   10b1c:	0c07de63          	bgez	a5,10bf8 <__muldf3+0x2f4>
   10b20:	00145793          	srli	a5,s0,0x1
   10b24:	00147413          	andi	s0,s0,1
   10b28:	0087e433          	or	s0,a5,s0
   10b2c:	3ffb0713          	addi	a4,s6,1023
   10b30:	0ce05863          	blez	a4,10c00 <__muldf3+0x2fc>
   10b34:	00747793          	andi	a5,s0,7
   10b38:	00078a63          	beqz	a5,10b4c <__muldf3+0x248>
   10b3c:	00f47793          	andi	a5,s0,15
   10b40:	00400693          	li	a3,4
   10b44:	00d78463          	beq	a5,a3,10b4c <__muldf3+0x248>
   10b48:	00440413          	addi	s0,s0,4
   10b4c:	00741793          	slli	a5,s0,0x7
   10b50:	0007dc63          	bgez	a5,10b68 <__muldf3+0x264>
   10b54:	fff00793          	li	a5,-1
   10b58:	03879793          	slli	a5,a5,0x38
   10b5c:	fff78793          	addi	a5,a5,-1
   10b60:	00f47433          	and	s0,s0,a5
   10b64:	400b0713          	addi	a4,s6,1024
   10b68:	7fe00793          	li	a5,2046
   10b6c:	10e7c063          	blt	a5,a4,10c6c <__muldf3+0x368>
   10b70:	00345793          	srli	a5,s0,0x3
   10b74:	0300006f          	j	10ba4 <__muldf3+0x2a0>
   10b78:	00098a13          	mv	s4,s3
   10b7c:	00048413          	mv	s0,s1
   10b80:	000a8693          	mv	a3,s5
   10b84:	00200793          	li	a5,2
   10b88:	0ef68263          	beq	a3,a5,10c6c <__muldf3+0x368>
   10b8c:	00300793          	li	a5,3
   10b90:	0cf68463          	beq	a3,a5,10c58 <__muldf3+0x354>
   10b94:	00100613          	li	a2,1
   10b98:	00000793          	li	a5,0
   10b9c:	00000713          	li	a4,0
   10ba0:	f8c696e3          	bne	a3,a2,10b2c <__muldf3+0x228>
   10ba4:	fff00513          	li	a0,-1
   10ba8:	00c55513          	srli	a0,a0,0xc
   10bac:	04813083          	ld	ra,72(sp)
   10bb0:	04013403          	ld	s0,64(sp)
   10bb4:	7ff77713          	andi	a4,a4,2047
   10bb8:	00a7f7b3          	and	a5,a5,a0
   10bbc:	03471713          	slli	a4,a4,0x34
   10bc0:	03fa1513          	slli	a0,s4,0x3f
   10bc4:	00e7e7b3          	or	a5,a5,a4
   10bc8:	03813483          	ld	s1,56(sp)
   10bcc:	03013903          	ld	s2,48(sp)
   10bd0:	02813983          	ld	s3,40(sp)
   10bd4:	02013a03          	ld	s4,32(sp)
   10bd8:	01813a83          	ld	s5,24(sp)
   10bdc:	01013b03          	ld	s6,16(sp)
   10be0:	00813b83          	ld	s7,8(sp)
   10be4:	00a7e533          	or	a0,a5,a0
   10be8:	05010113          	addi	sp,sp,80
   10bec:	00008067          	ret
   10bf0:	000b8a13          	mv	s4,s7
   10bf4:	f91ff06f          	j	10b84 <__muldf3+0x280>
   10bf8:	00090b13          	mv	s6,s2
   10bfc:	f31ff06f          	j	10b2c <__muldf3+0x228>
   10c00:	00100793          	li	a5,1
   10c04:	40e78733          	sub	a4,a5,a4
   10c08:	03800793          	li	a5,56
   10c0c:	06e7c663          	blt	a5,a4,10c78 <__muldf3+0x374>
   10c10:	0007071b          	sext.w	a4,a4
   10c14:	04000693          	li	a3,64
   10c18:	00e457b3          	srl	a5,s0,a4
   10c1c:	40e6873b          	subw	a4,a3,a4
   10c20:	00e41433          	sll	s0,s0,a4
   10c24:	00803433          	snez	s0,s0
   10c28:	0087e433          	or	s0,a5,s0
   10c2c:	00747793          	andi	a5,s0,7
   10c30:	00078a63          	beqz	a5,10c44 <__muldf3+0x340>
   10c34:	00f47793          	andi	a5,s0,15
   10c38:	00400713          	li	a4,4
   10c3c:	00e78463          	beq	a5,a4,10c44 <__muldf3+0x340>
   10c40:	00440413          	addi	s0,s0,4
   10c44:	00841793          	slli	a5,s0,0x8
   10c48:	0207cc63          	bltz	a5,10c80 <__muldf3+0x37c>
   10c4c:	00345793          	srli	a5,s0,0x3
   10c50:	00000713          	li	a4,0
   10c54:	f51ff06f          	j	10ba4 <__muldf3+0x2a0>
   10c58:	00100793          	li	a5,1
   10c5c:	03379793          	slli	a5,a5,0x33
   10c60:	7ff00713          	li	a4,2047
   10c64:	00000a13          	li	s4,0
   10c68:	f3dff06f          	j	10ba4 <__muldf3+0x2a0>
   10c6c:	00000793          	li	a5,0
   10c70:	7ff00713          	li	a4,2047
   10c74:	f31ff06f          	j	10ba4 <__muldf3+0x2a0>
   10c78:	00000793          	li	a5,0
   10c7c:	fd5ff06f          	j	10c50 <__muldf3+0x34c>
   10c80:	00000793          	li	a5,0
   10c84:	00100713          	li	a4,1
   10c88:	f1dff06f          	j	10ba4 <__muldf3+0x2a0>
   10c8c:	0000                	unimp
	...

0000000000010c90 <__subdf3>:
   10c90:	fff00693          	li	a3,-1
   10c94:	fe010113          	addi	sp,sp,-32
   10c98:	00c6d693          	srli	a3,a3,0xc
   10c9c:	00a6f733          	and	a4,a3,a0
   10ca0:	03455813          	srli	a6,a0,0x34
   10ca4:	01213023          	sd	s2,0(sp)
   10ca8:	03f55913          	srli	s2,a0,0x3f
   10cac:	0345d513          	srli	a0,a1,0x34
   10cb0:	00b6f7b3          	and	a5,a3,a1
   10cb4:	00813823          	sd	s0,16(sp)
   10cb8:	7ff87813          	andi	a6,a6,2047
   10cbc:	00113c23          	sd	ra,24(sp)
   10cc0:	00913423          	sd	s1,8(sp)
   10cc4:	7ff57513          	andi	a0,a0,2047
   10cc8:	7ff00693          	li	a3,2047
   10ccc:	00080413          	mv	s0,a6
   10cd0:	00371713          	slli	a4,a4,0x3
   10cd4:	03f5d593          	srli	a1,a1,0x3f
   10cd8:	00379793          	slli	a5,a5,0x3
   10cdc:	00d51463          	bne	a0,a3,10ce4 <__subdf3+0x54>
   10ce0:	00079463          	bnez	a5,10ce8 <__subdf3+0x58>
   10ce4:	0015c593          	xori	a1,a1,1
   10ce8:	40a806bb          	subw	a3,a6,a0
   10cec:	0006861b          	sext.w	a2,a3
   10cf0:	19259e63          	bne	a1,s2,10e8c <__subdf3+0x1fc>
   10cf4:	08c05e63          	blez	a2,10d90 <__subdf3+0x100>
   10cf8:	04051c63          	bnez	a0,10d50 <__subdf3+0xc0>
   10cfc:	04078663          	beqz	a5,10d48 <__subdf3+0xb8>
   10d00:	fff6861b          	addiw	a2,a3,-1
   10d04:	02061e63          	bnez	a2,10d40 <__subdf3+0xb0>
   10d08:	00e787b3          	add	a5,a5,a4
   10d0c:	00879713          	slli	a4,a5,0x8
   10d10:	12075c63          	bgez	a4,10e48 <__subdf3+0x1b8>
   10d14:	00140413          	addi	s0,s0,1
   10d18:	7ff00713          	li	a4,2047
   10d1c:	34e40a63          	beq	s0,a4,11070 <__subdf3+0x3e0>
   10d20:	1ff00713          	li	a4,511
   10d24:	03671713          	slli	a4,a4,0x36
   10d28:	0017f693          	andi	a3,a5,1
   10d2c:	fff70713          	addi	a4,a4,-1
   10d30:	0017d793          	srli	a5,a5,0x1
   10d34:	00e7f7b3          	and	a5,a5,a4
   10d38:	00d7e7b3          	or	a5,a5,a3
   10d3c:	10c0006f          	j	10e48 <__subdf3+0x1b8>
   10d40:	7ff00693          	li	a3,2047
   10d44:	02d81063          	bne	a6,a3,10d64 <__subdf3+0xd4>
   10d48:	00070793          	mv	a5,a4
   10d4c:	0fc0006f          	j	10e48 <__subdf3+0x1b8>
   10d50:	7ff00693          	li	a3,2047
   10d54:	fed80ae3          	beq	a6,a3,10d48 <__subdf3+0xb8>
   10d58:	00100693          	li	a3,1
   10d5c:	03769693          	slli	a3,a3,0x37
   10d60:	00d7e7b3          	or	a5,a5,a3
   10d64:	03800693          	li	a3,56
   10d68:	00c6d663          	ble	a2,a3,10d74 <__subdf3+0xe4>
   10d6c:	00100793          	li	a5,1
   10d70:	f99ff06f          	j	10d08 <__subdf3+0x78>
   10d74:	04000693          	li	a3,64
   10d78:	00c7d5b3          	srl	a1,a5,a2
   10d7c:	40c6863b          	subw	a2,a3,a2
   10d80:	00c797b3          	sll	a5,a5,a2
   10d84:	00f037b3          	snez	a5,a5
   10d88:	00f5e7b3          	or	a5,a1,a5
   10d8c:	f7dff06f          	j	10d08 <__subdf3+0x78>
   10d90:	06060c63          	beqz	a2,10e08 <__subdf3+0x178>
   10d94:	02081863          	bnez	a6,10dc4 <__subdf3+0x134>
   10d98:	2c070663          	beqz	a4,11064 <__subdf3+0x3d4>
   10d9c:	fff00593          	li	a1,-1
   10da0:	00b61863          	bne	a2,a1,10db0 <__subdf3+0x120>
   10da4:	00e787b3          	add	a5,a5,a4
   10da8:	00050413          	mv	s0,a0
   10dac:	f61ff06f          	j	10d0c <__subdf3+0x7c>
   10db0:	7ff00613          	li	a2,2047
   10db4:	fff6c693          	not	a3,a3
   10db8:	02c51263          	bne	a0,a2,10ddc <__subdf3+0x14c>
   10dbc:	7ff00413          	li	s0,2047
   10dc0:	0880006f          	j	10e48 <__subdf3+0x1b8>
   10dc4:	7ff00613          	li	a2,2047
   10dc8:	fec50ae3          	beq	a0,a2,10dbc <__subdf3+0x12c>
   10dcc:	00100613          	li	a2,1
   10dd0:	03761613          	slli	a2,a2,0x37
   10dd4:	40d006bb          	negw	a3,a3
   10dd8:	00c76733          	or	a4,a4,a2
   10ddc:	03800613          	li	a2,56
   10de0:	00d65663          	ble	a3,a2,10dec <__subdf3+0x15c>
   10de4:	00100713          	li	a4,1
   10de8:	fbdff06f          	j	10da4 <__subdf3+0x114>
   10dec:	04000613          	li	a2,64
   10df0:	00d755b3          	srl	a1,a4,a3
   10df4:	40d606bb          	subw	a3,a2,a3
   10df8:	00d71733          	sll	a4,a4,a3
   10dfc:	00e03733          	snez	a4,a4
   10e00:	00e5e733          	or	a4,a1,a4
   10e04:	fa1ff06f          	j	10da4 <__subdf3+0x114>
   10e08:	00180613          	addi	a2,a6,1
   10e0c:	7ff67593          	andi	a1,a2,2047
   10e10:	00100693          	li	a3,1
   10e14:	06b6c063          	blt	a3,a1,10e74 <__subdf3+0x1e4>
   10e18:	04081663          	bnez	a6,10e64 <__subdf3+0x1d4>
   10e1c:	02070663          	beqz	a4,10e48 <__subdf3+0x1b8>
   10e20:	f20784e3          	beqz	a5,10d48 <__subdf3+0xb8>
   10e24:	00e787b3          	add	a5,a5,a4
   10e28:	03769693          	slli	a3,a3,0x37
   10e2c:	00d7f6b3          	and	a3,a5,a3
   10e30:	00068c63          	beqz	a3,10e48 <__subdf3+0x1b8>
   10e34:	fff00713          	li	a4,-1
   10e38:	03771713          	slli	a4,a4,0x37
   10e3c:	fff70713          	addi	a4,a4,-1
   10e40:	00e7f7b3          	and	a5,a5,a4
   10e44:	00100413          	li	s0,1
   10e48:	0077f713          	andi	a4,a5,7
   10e4c:	22070463          	beqz	a4,11074 <__subdf3+0x3e4>
   10e50:	00f7f713          	andi	a4,a5,15
   10e54:	00400693          	li	a3,4
   10e58:	20d70e63          	beq	a4,a3,11074 <__subdf3+0x3e4>
   10e5c:	00478793          	addi	a5,a5,4
   10e60:	2140006f          	j	11074 <__subdf3+0x3e4>
   10e64:	f4070ce3          	beqz	a4,10dbc <__subdf3+0x12c>
   10e68:	16079a63          	bnez	a5,10fdc <__subdf3+0x34c>
   10e6c:	00070793          	mv	a5,a4
   10e70:	f4dff06f          	j	10dbc <__subdf3+0x12c>
   10e74:	7ff00693          	li	a3,2047
   10e78:	1ed60a63          	beq	a2,a3,1106c <__subdf3+0x3dc>
   10e7c:	00f707b3          	add	a5,a4,a5
   10e80:	0017d793          	srli	a5,a5,0x1
   10e84:	00060413          	mv	s0,a2
   10e88:	fc1ff06f          	j	10e48 <__subdf3+0x1b8>
   10e8c:	08c05263          	blez	a2,10f10 <__subdf3+0x280>
   10e90:	04051663          	bnez	a0,10edc <__subdf3+0x24c>
   10e94:	ea078ae3          	beqz	a5,10d48 <__subdf3+0xb8>
   10e98:	fff6861b          	addiw	a2,a3,-1
   10e9c:	02061463          	bnez	a2,10ec4 <__subdf3+0x234>
   10ea0:	40f707b3          	sub	a5,a4,a5
   10ea4:	00090593          	mv	a1,s2
   10ea8:	00879713          	slli	a4,a5,0x8
   10eac:	00058913          	mv	s2,a1
   10eb0:	f8075ce3          	bgez	a4,10e48 <__subdf3+0x1b8>
   10eb4:	fff00493          	li	s1,-1
   10eb8:	0094d493          	srli	s1,s1,0x9
   10ebc:	0097f4b3          	and	s1,a5,s1
   10ec0:	1400006f          	j	11000 <__subdf3+0x370>
   10ec4:	7ff00693          	li	a3,2047
   10ec8:	e8d800e3          	beq	a6,a3,10d48 <__subdf3+0xb8>
   10ecc:	03800693          	li	a3,56
   10ed0:	02c6d263          	ble	a2,a3,10ef4 <__subdf3+0x264>
   10ed4:	00100793          	li	a5,1
   10ed8:	fc9ff06f          	j	10ea0 <__subdf3+0x210>
   10edc:	7ff00693          	li	a3,2047
   10ee0:	e6d804e3          	beq	a6,a3,10d48 <__subdf3+0xb8>
   10ee4:	00100693          	li	a3,1
   10ee8:	03769693          	slli	a3,a3,0x37
   10eec:	00d7e7b3          	or	a5,a5,a3
   10ef0:	fddff06f          	j	10ecc <__subdf3+0x23c>
   10ef4:	04000693          	li	a3,64
   10ef8:	00c7d5b3          	srl	a1,a5,a2
   10efc:	40c6863b          	subw	a2,a3,a2
   10f00:	00c797b3          	sll	a5,a5,a2
   10f04:	00f037b3          	snez	a5,a5
   10f08:	00f5e7b3          	or	a5,a1,a5
   10f0c:	f95ff06f          	j	10ea0 <__subdf3+0x210>
   10f10:	06060c63          	beqz	a2,10f88 <__subdf3+0x2f8>
   10f14:	02081863          	bnez	a6,10f44 <__subdf3+0x2b4>
   10f18:	1c070a63          	beqz	a4,110ec <__subdf3+0x45c>
   10f1c:	fff00813          	li	a6,-1
   10f20:	01061863          	bne	a2,a6,10f30 <__subdf3+0x2a0>
   10f24:	40e787b3          	sub	a5,a5,a4
   10f28:	00050413          	mv	s0,a0
   10f2c:	f7dff06f          	j	10ea8 <__subdf3+0x218>
   10f30:	7ff00613          	li	a2,2047
   10f34:	fff6c693          	not	a3,a3
   10f38:	02c51263          	bne	a0,a2,10f5c <__subdf3+0x2cc>
   10f3c:	7ff00413          	li	s0,2047
   10f40:	1b00006f          	j	110f0 <__subdf3+0x460>
   10f44:	7ff00613          	li	a2,2047
   10f48:	fec50ae3          	beq	a0,a2,10f3c <__subdf3+0x2ac>
   10f4c:	00100613          	li	a2,1
   10f50:	03761613          	slli	a2,a2,0x37
   10f54:	40d006bb          	negw	a3,a3
   10f58:	00c76733          	or	a4,a4,a2
   10f5c:	03800613          	li	a2,56
   10f60:	00d65663          	ble	a3,a2,10f6c <__subdf3+0x2dc>
   10f64:	00100713          	li	a4,1
   10f68:	fbdff06f          	j	10f24 <__subdf3+0x294>
   10f6c:	04000613          	li	a2,64
   10f70:	00d75833          	srl	a6,a4,a3
   10f74:	40d606bb          	subw	a3,a2,a3
   10f78:	00d71733          	sll	a4,a4,a3
   10f7c:	00e03733          	snez	a4,a4
   10f80:	00e86733          	or	a4,a6,a4
   10f84:	fa1ff06f          	j	10f24 <__subdf3+0x294>
   10f88:	00180613          	addi	a2,a6,1
   10f8c:	7ff67613          	andi	a2,a2,2047
   10f90:	00100693          	li	a3,1
   10f94:	04c6ca63          	blt	a3,a2,10fe8 <__subdf3+0x358>
   10f98:	02081e63          	bnez	a6,10fd4 <__subdf3+0x344>
   10f9c:	00071863          	bnez	a4,10fac <__subdf3+0x31c>
   10fa0:	14079863          	bnez	a5,110f0 <__subdf3+0x460>
   10fa4:	00000913          	li	s2,0
   10fa8:	0cc0006f          	j	11074 <__subdf3+0x3e4>
   10fac:	d8078ee3          	beqz	a5,10d48 <__subdf3+0xb8>
   10fb0:	40f70633          	sub	a2,a4,a5
   10fb4:	03769693          	slli	a3,a3,0x37
   10fb8:	00d676b3          	and	a3,a2,a3
   10fbc:	40e787b3          	sub	a5,a5,a4
   10fc0:	12069863          	bnez	a3,110f0 <__subdf3+0x460>
   10fc4:	00060793          	mv	a5,a2
   10fc8:	e80610e3          	bnez	a2,10e48 <__subdf3+0x1b8>
   10fcc:	00000793          	li	a5,0
   10fd0:	fd5ff06f          	j	10fa4 <__subdf3+0x314>
   10fd4:	e8071ae3          	bnez	a4,10e68 <__subdf3+0x1d8>
   10fd8:	12079063          	bnez	a5,110f8 <__subdf3+0x468>
   10fdc:	03669793          	slli	a5,a3,0x36
   10fe0:	7ff00413          	li	s0,2047
   10fe4:	fc1ff06f          	j	10fa4 <__subdf3+0x314>
   10fe8:	40f704b3          	sub	s1,a4,a5
   10fec:	03769693          	slli	a3,a3,0x37
   10ff0:	00d4f6b3          	and	a3,s1,a3
   10ff4:	04068463          	beqz	a3,1103c <__subdf3+0x3ac>
   10ff8:	40e784b3          	sub	s1,a5,a4
   10ffc:	00058913          	mv	s2,a1
   11000:	00048513          	mv	a0,s1
   11004:	3dc000ef          	jal	ra,113e0 <__clzdi2>
   11008:	ff85079b          	addiw	a5,a0,-8
   1100c:	00f494b3          	sll	s1,s1,a5
   11010:	0287ce63          	blt	a5,s0,1104c <__subdf3+0x3bc>
   11014:	4087843b          	subw	s0,a5,s0
   11018:	0014041b          	addiw	s0,s0,1
   1101c:	04000513          	li	a0,64
   11020:	0084d7b3          	srl	a5,s1,s0
   11024:	4085043b          	subw	s0,a0,s0
   11028:	008494b3          	sll	s1,s1,s0
   1102c:	009034b3          	snez	s1,s1
   11030:	0097e7b3          	or	a5,a5,s1
   11034:	00000413          	li	s0,0
   11038:	e11ff06f          	j	10e48 <__subdf3+0x1b8>
   1103c:	fc0492e3          	bnez	s1,11000 <__subdf3+0x370>
   11040:	00000793          	li	a5,0
   11044:	00000413          	li	s0,0
   11048:	f5dff06f          	j	10fa4 <__subdf3+0x314>
   1104c:	40f40433          	sub	s0,s0,a5
   11050:	fff00793          	li	a5,-1
   11054:	03779793          	slli	a5,a5,0x37
   11058:	fff78793          	addi	a5,a5,-1
   1105c:	00f4f7b3          	and	a5,s1,a5
   11060:	de9ff06f          	j	10e48 <__subdf3+0x1b8>
   11064:	00050413          	mv	s0,a0
   11068:	de1ff06f          	j	10e48 <__subdf3+0x1b8>
   1106c:	7ff00413          	li	s0,2047
   11070:	00000793          	li	a5,0
   11074:	00879713          	slli	a4,a5,0x8
   11078:	02075063          	bgez	a4,11098 <__subdf3+0x408>
   1107c:	00140413          	addi	s0,s0,1
   11080:	7ff00713          	li	a4,2047
   11084:	06e40e63          	beq	s0,a4,11100 <__subdf3+0x470>
   11088:	fff00713          	li	a4,-1
   1108c:	03771713          	slli	a4,a4,0x37
   11090:	fff70713          	addi	a4,a4,-1
   11094:	00e7f7b3          	and	a5,a5,a4
   11098:	7ff00713          	li	a4,2047
   1109c:	0037d793          	srli	a5,a5,0x3
   110a0:	00e41a63          	bne	s0,a4,110b4 <__subdf3+0x424>
   110a4:	00078863          	beqz	a5,110b4 <__subdf3+0x424>
   110a8:	00100793          	li	a5,1
   110ac:	03379793          	slli	a5,a5,0x33
   110b0:	00000913          	li	s2,0
   110b4:	7ff47513          	andi	a0,s0,2047
   110b8:	fff00413          	li	s0,-1
   110bc:	00c45413          	srli	s0,s0,0xc
   110c0:	0087f7b3          	and	a5,a5,s0
   110c4:	01813083          	ld	ra,24(sp)
   110c8:	01013403          	ld	s0,16(sp)
   110cc:	03451513          	slli	a0,a0,0x34
   110d0:	03f91913          	slli	s2,s2,0x3f
   110d4:	00a7e533          	or	a0,a5,a0
   110d8:	01256533          	or	a0,a0,s2
   110dc:	00813483          	ld	s1,8(sp)
   110e0:	00013903          	ld	s2,0(sp)
   110e4:	02010113          	addi	sp,sp,32
   110e8:	00008067          	ret
   110ec:	00050413          	mv	s0,a0
   110f0:	00058913          	mv	s2,a1
   110f4:	d55ff06f          	j	10e48 <__subdf3+0x1b8>
   110f8:	00058913          	mv	s2,a1
   110fc:	cc1ff06f          	j	10dbc <__subdf3+0x12c>
   11100:	00000793          	li	a5,0
   11104:	f95ff06f          	j	11098 <__subdf3+0x408>
   11108:	0000                	unimp
	...

000000000001110c <__floatsidf>:
   1110c:	fe010113          	addi	sp,sp,-32
   11110:	00113c23          	sd	ra,24(sp)
   11114:	00813823          	sd	s0,16(sp)
   11118:	00913423          	sd	s1,8(sp)
   1111c:	06050663          	beqz	a0,11188 <__floatsidf+0x7c>
   11120:	0005079b          	sext.w	a5,a0
   11124:	03f55493          	srli	s1,a0,0x3f
   11128:	00055463          	bgez	a0,11130 <__floatsidf+0x24>
   1112c:	40f007bb          	negw	a5,a5
   11130:	02079413          	slli	s0,a5,0x20
   11134:	02045413          	srli	s0,s0,0x20
   11138:	00040513          	mv	a0,s0
   1113c:	2a4000ef          	jal	ra,113e0 <__clzdi2>
   11140:	43e00793          	li	a5,1086
   11144:	40a7873b          	subw	a4,a5,a0
   11148:	43300793          	li	a5,1075
   1114c:	40e787bb          	subw	a5,a5,a4
   11150:	00f417b3          	sll	a5,s0,a5
   11154:	fff00413          	li	s0,-1
   11158:	00c45413          	srli	s0,s0,0xc
   1115c:	0087f7b3          	and	a5,a5,s0
   11160:	01813083          	ld	ra,24(sp)
   11164:	01013403          	ld	s0,16(sp)
   11168:	7ff77713          	andi	a4,a4,2047
   1116c:	03471713          	slli	a4,a4,0x34
   11170:	03f49513          	slli	a0,s1,0x3f
   11174:	00e7e7b3          	or	a5,a5,a4
   11178:	00813483          	ld	s1,8(sp)
   1117c:	00a7e533          	or	a0,a5,a0
   11180:	02010113          	addi	sp,sp,32
   11184:	00008067          	ret
   11188:	00000793          	li	a5,0
   1118c:	00000713          	li	a4,0
   11190:	00000493          	li	s1,0
   11194:	fc1ff06f          	j	11154 <__floatsidf+0x48>
   11198:	0000                	unimp
	...

000000000001119c <__extendsfdf2>:
   1119c:	fe010113          	addi	sp,sp,-32
   111a0:	0175579b          	srliw	a5,a0,0x17
   111a4:	00813823          	sd	s0,16(sp)
   111a8:	00800437          	lui	s0,0x800
   111ac:	fff40413          	addi	s0,s0,-1 # 7fffff <__global_pointer$+0x7ed02f>
   111b0:	0ff7f793          	andi	a5,a5,255
   111b4:	00a47433          	and	s0,s0,a0
   111b8:	00178693          	addi	a3,a5,1
   111bc:	00913423          	sd	s1,8(sp)
   111c0:	02041413          	slli	s0,s0,0x20
   111c4:	01f5551b          	srliw	a0,a0,0x1f
   111c8:	00113c23          	sd	ra,24(sp)
   111cc:	0ff6f693          	andi	a3,a3,255
   111d0:	00100713          	li	a4,1
   111d4:	02045413          	srli	s0,s0,0x20
   111d8:	0ff57493          	andi	s1,a0,255
   111dc:	04d75063          	ble	a3,a4,1121c <__extendsfdf2+0x80>
   111e0:	38078513          	addi	a0,a5,896
   111e4:	01d41413          	slli	s0,s0,0x1d
   111e8:	7ff57513          	andi	a0,a0,2047
   111ec:	03451793          	slli	a5,a0,0x34
   111f0:	fff00513          	li	a0,-1
   111f4:	00c55513          	srli	a0,a0,0xc
   111f8:	00a47433          	and	s0,s0,a0
   111fc:	00f46433          	or	s0,s0,a5
   11200:	03f49513          	slli	a0,s1,0x3f
   11204:	00a46533          	or	a0,s0,a0
   11208:	01813083          	ld	ra,24(sp)
   1120c:	01013403          	ld	s0,16(sp)
   11210:	00813483          	ld	s1,8(sp)
   11214:	02010113          	addi	sp,sp,32
   11218:	00008067          	ret
   1121c:	02079463          	bnez	a5,11244 <__extendsfdf2+0xa8>
   11220:	00000513          	li	a0,0
   11224:	fc0402e3          	beqz	s0,111e8 <__extendsfdf2+0x4c>
   11228:	00040513          	mv	a0,s0
   1122c:	1b4000ef          	jal	ra,113e0 <__clzdi2>
   11230:	ff55079b          	addiw	a5,a0,-11
   11234:	00f41433          	sll	s0,s0,a5
   11238:	3a900793          	li	a5,937
   1123c:	40a7853b          	subw	a0,a5,a0
   11240:	fa9ff06f          	j	111e8 <__extendsfdf2+0x4c>
   11244:	7ff00513          	li	a0,2047
   11248:	fa0400e3          	beqz	s0,111e8 <__extendsfdf2+0x4c>
   1124c:	01d41413          	slli	s0,s0,0x1d
   11250:	03371713          	slli	a4,a4,0x33
   11254:	00e46433          	or	s0,s0,a4
   11258:	f91ff06f          	j	111e8 <__extendsfdf2+0x4c>
   1125c:	0000                	unimp
	...

0000000000011260 <__truncdfsf2>:
   11260:	03455713          	srli	a4,a0,0x34
   11264:	fff00693          	li	a3,-1
   11268:	7ff77713          	andi	a4,a4,2047
   1126c:	00c6d693          	srli	a3,a3,0xc
   11270:	00170593          	addi	a1,a4,1
   11274:	00a6f6b3          	and	a3,a3,a0
   11278:	7ff5f593          	andi	a1,a1,2047
   1127c:	00100613          	li	a2,1
   11280:	03f55513          	srli	a0,a0,0x3f
   11284:	00369793          	slli	a5,a3,0x3
   11288:	06b65463          	ble	a1,a2,112f0 <__truncdfsf2+0x90>
   1128c:	c8070713          	addi	a4,a4,-896
   11290:	0fe00593          	li	a1,254
   11294:	08e5c063          	blt	a1,a4,11314 <__truncdfsf2+0xb4>
   11298:	04e04263          	bgtz	a4,112dc <__truncdfsf2+0x7c>
   1129c:	fe900693          	li	a3,-23
   112a0:	0ed74863          	blt	a4,a3,11390 <__truncdfsf2+0x130>
   112a4:	0007071b          	sext.w	a4,a4
   112a8:	03761613          	slli	a2,a2,0x37
   112ac:	01e00693          	li	a3,30
   112b0:	00c7e7b3          	or	a5,a5,a2
   112b4:	40e686bb          	subw	a3,a3,a4
   112b8:	0227071b          	addiw	a4,a4,34
   112bc:	00d7d6b3          	srl	a3,a5,a3
   112c0:	00e797b3          	sll	a5,a5,a4
   112c4:	00f037b3          	snez	a5,a5
   112c8:	00f6e7b3          	or	a5,a3,a5
   112cc:	00000713          	li	a4,0
   112d0:	0077f693          	andi	a3,a5,7
   112d4:	04068463          	beqz	a3,1131c <__truncdfsf2+0xbc>
   112d8:	0c00006f          	j	11398 <__truncdfsf2+0x138>
   112dc:	02669693          	slli	a3,a3,0x26
   112e0:	01d7d793          	srli	a5,a5,0x1d
   112e4:	00d036b3          	snez	a3,a3
   112e8:	00d7e7b3          	or	a5,a5,a3
   112ec:	fe5ff06f          	j	112d0 <__truncdfsf2+0x70>
   112f0:	00071663          	bnez	a4,112fc <__truncdfsf2+0x9c>
   112f4:	00f037b3          	snez	a5,a5
   112f8:	fd9ff06f          	j	112d0 <__truncdfsf2+0x70>
   112fc:	0ff00713          	li	a4,255
   11300:	00078e63          	beqz	a5,1131c <__truncdfsf2+0xbc>
   11304:	01d7d793          	srli	a5,a5,0x1d
   11308:	ff87f793          	andi	a5,a5,-8
   1130c:	020006b7          	lui	a3,0x2000
   11310:	fd9ff06f          	j	112e8 <__truncdfsf2+0x88>
   11314:	00000793          	li	a5,0
   11318:	0ff00713          	li	a4,255
   1131c:	02579693          	slli	a3,a5,0x25
   11320:	0006de63          	bgez	a3,1133c <__truncdfsf2+0xdc>
   11324:	00170713          	addi	a4,a4,1
   11328:	0ff00693          	li	a3,255
   1132c:	08d70063          	beq	a4,a3,113ac <__truncdfsf2+0x14c>
   11330:	fc0006b7          	lui	a3,0xfc000
   11334:	fff68693          	addi	a3,a3,-1 # fffffffffbffffff <__global_pointer$+0xfffffffffbfed02f>
   11338:	00d7f7b3          	and	a5,a5,a3
   1133c:	0ff00693          	li	a3,255
   11340:	0037d793          	srli	a5,a5,0x3
   11344:	00d71863          	bne	a4,a3,11354 <__truncdfsf2+0xf4>
   11348:	00078663          	beqz	a5,11354 <__truncdfsf2+0xf4>
   1134c:	004007b7          	lui	a5,0x400
   11350:	00000513          	li	a0,0
   11354:	008006b7          	lui	a3,0x800
   11358:	fff68693          	addi	a3,a3,-1 # 7fffff <__global_pointer$+0x7ed02f>
   1135c:	00d7f7b3          	and	a5,a5,a3
   11360:	808006b7          	lui	a3,0x80800
   11364:	fff68693          	addi	a3,a3,-1 # ffffffff807fffff <__global_pointer$+0xffffffff807ed02f>
   11368:	0ff77713          	andi	a4,a4,255
   1136c:	0177171b          	slliw	a4,a4,0x17
   11370:	00d7f7b3          	and	a5,a5,a3
   11374:	00e7e7b3          	or	a5,a5,a4
   11378:	80000737          	lui	a4,0x80000
   1137c:	fff74713          	not	a4,a4
   11380:	00e7f7b3          	and	a5,a5,a4
   11384:	01f5151b          	slliw	a0,a0,0x1f
   11388:	00a7e533          	or	a0,a5,a0
   1138c:	00008067          	ret
   11390:	00100793          	li	a5,1
   11394:	00000713          	li	a4,0
   11398:	00f7f693          	andi	a3,a5,15
   1139c:	00400613          	li	a2,4
   113a0:	f6c68ee3          	beq	a3,a2,1131c <__truncdfsf2+0xbc>
   113a4:	00478793          	addi	a5,a5,4 # 400004 <__global_pointer$+0x3ed034>
   113a8:	f75ff06f          	j	1131c <__truncdfsf2+0xbc>
   113ac:	00000793          	li	a5,0
   113b0:	f8dff06f          	j	1133c <__truncdfsf2+0xdc>
   113b4:	0000                	unimp
	...

00000000000113b8 <__muldi3>:
   113b8:	00050613          	mv	a2,a0
   113bc:	00000513          	li	a0,0
   113c0:	0015f693          	andi	a3,a1,1
   113c4:	00068463          	beqz	a3,113cc <__muldi3+0x14>
   113c8:	00c50533          	add	a0,a0,a2
   113cc:	0015d593          	srli	a1,a1,0x1
   113d0:	00161613          	slli	a2,a2,0x1
   113d4:	fe0596e3          	bnez	a1,113c0 <__muldi3+0x8>
   113d8:	00008067          	ret
   113dc:	0000                	unimp
	...

00000000000113e0 <__clzdi2>:
   113e0:	03800793          	li	a5,56
   113e4:	00f55733          	srl	a4,a0,a5
   113e8:	0ff77713          	andi	a4,a4,255
   113ec:	00071663          	bnez	a4,113f8 <__clzdi2+0x18>
   113f0:	ff878793          	addi	a5,a5,-8
   113f4:	fe0798e3          	bnez	a5,113e4 <__clzdi2+0x4>
   113f8:	04000713          	li	a4,64
   113fc:	40f70733          	sub	a4,a4,a5
   11400:	00f557b3          	srl	a5,a0,a5
   11404:	00012537          	lui	a0,0x12
   11408:	ee050513          	addi	a0,a0,-288 # 11ee0 <__clz_tab>
   1140c:	00a787b3          	add	a5,a5,a0
   11410:	0007c503          	lbu	a0,0(a5)
   11414:	40a7053b          	subw	a0,a4,a0
   11418:	00008067          	ret
   1141c:	0000                	unimp
	...

0000000000011420 <atexit>:
   11420:	00050593          	mv	a1,a0
   11424:	00000693          	li	a3,0
   11428:	00000613          	li	a2,0
   1142c:	00000513          	li	a0,0
   11430:	2400006f          	j	11670 <__register_exitproc>
   11434:	0000                	unimp
	...

0000000000011438 <exit>:
   11438:	ff010113          	addi	sp,sp,-16
   1143c:	00000593          	li	a1,0
   11440:	00813023          	sd	s0,0(sp)
   11444:	00113423          	sd	ra,8(sp)
   11448:	00050413          	mv	s0,a0
   1144c:	2b0000ef          	jal	ra,116fc <__call_exitprocs>
   11450:	000127b7          	lui	a5,0x12
   11454:	7d87b503          	ld	a0,2008(a5) # 127d8 <_global_impure_ptr>
   11458:	05853783          	ld	a5,88(a0)
   1145c:	00078463          	beqz	a5,11464 <exit+0x2c>
   11460:	000780e7          	jalr	a5
   11464:	00040513          	mv	a0,s0
   11468:	00001097          	auipc	ra,0x1
   1146c:	9f8080e7          	jalr	-1544(ra) # 11e60 <_exit>
   11470:	0000                	unimp
	...

0000000000011474 <__libc_fini_array>:
   11474:	fe010113          	addi	sp,sp,-32
   11478:	000127b7          	lui	a5,0x12
   1147c:	00012737          	lui	a4,0x12
   11480:	00813823          	sd	s0,16(sp)
   11484:	00870713          	addi	a4,a4,8 # 12008 <__init_array_end>
   11488:	01078413          	addi	s0,a5,16 # 12010 <__fini_array_end>
   1148c:	40e40433          	sub	s0,s0,a4
   11490:	00913423          	sd	s1,8(sp)
   11494:	01213023          	sd	s2,0(sp)
   11498:	00113c23          	sd	ra,24(sp)
   1149c:	40345413          	srai	s0,s0,0x3
   114a0:	00000493          	li	s1,0
   114a4:	01078913          	addi	s2,a5,16
   114a8:	02941063          	bne	s0,s1,114c8 <__libc_fini_array+0x54>
   114ac:	01013403          	ld	s0,16(sp)
   114b0:	01813083          	ld	ra,24(sp)
   114b4:	00813483          	ld	s1,8(sp)
   114b8:	00013903          	ld	s2,0(sp)
   114bc:	02010113          	addi	sp,sp,32
   114c0:	fffff317          	auipc	t1,0xfffff
   114c4:	c4030067          	jr	-960(t1) # 10100 <_fini>
   114c8:	ff800593          	li	a1,-8
   114cc:	00048513          	mv	a0,s1
   114d0:	ee9ff0ef          	jal	ra,113b8 <__muldi3>
   114d4:	00a90533          	add	a0,s2,a0
   114d8:	ff853783          	ld	a5,-8(a0)
   114dc:	00148493          	addi	s1,s1,1
   114e0:	000780e7          	jalr	a5
   114e4:	fc5ff06f          	j	114a8 <__libc_fini_array+0x34>
   114e8:	0000                	unimp
	...

00000000000114ec <__libc_init_array>:
   114ec:	fe010113          	addi	sp,sp,-32
   114f0:	00813823          	sd	s0,16(sp)
   114f4:	00913423          	sd	s1,8(sp)
   114f8:	00012437          	lui	s0,0x12
   114fc:	000124b7          	lui	s1,0x12
   11500:	00048793          	mv	a5,s1
   11504:	00040413          	mv	s0,s0
   11508:	40f40433          	sub	s0,s0,a5
   1150c:	01213023          	sd	s2,0(sp)
   11510:	00113c23          	sd	ra,24(sp)
   11514:	40345413          	srai	s0,s0,0x3
   11518:	00048493          	mv	s1,s1
   1151c:	00000913          	li	s2,0
   11520:	04891463          	bne	s2,s0,11568 <__libc_init_array+0x7c>
   11524:	000124b7          	lui	s1,0x12
   11528:	fffff097          	auipc	ra,0xfffff
   1152c:	bd8080e7          	jalr	-1064(ra) # 10100 <_fini>
   11530:	00012437          	lui	s0,0x12
   11534:	00048793          	mv	a5,s1
   11538:	00840413          	addi	s0,s0,8 # 12008 <__init_array_end>
   1153c:	40f40433          	sub	s0,s0,a5
   11540:	40345413          	srai	s0,s0,0x3
   11544:	00048493          	mv	s1,s1
   11548:	00000913          	li	s2,0
   1154c:	02891863          	bne	s2,s0,1157c <__libc_init_array+0x90>
   11550:	01813083          	ld	ra,24(sp)
   11554:	01013403          	ld	s0,16(sp)
   11558:	00813483          	ld	s1,8(sp)
   1155c:	00013903          	ld	s2,0(sp)
   11560:	02010113          	addi	sp,sp,32
   11564:	00008067          	ret
   11568:	0004b783          	ld	a5,0(s1) # 12000 <__frame_dummy_init_array_entry>
   1156c:	00190913          	addi	s2,s2,1
   11570:	00848493          	addi	s1,s1,8
   11574:	000780e7          	jalr	a5
   11578:	fa9ff06f          	j	11520 <__libc_init_array+0x34>
   1157c:	0004b783          	ld	a5,0(s1)
   11580:	00190913          	addi	s2,s2,1
   11584:	00848493          	addi	s1,s1,8
   11588:	000780e7          	jalr	a5
   1158c:	fc1ff06f          	j	1154c <__libc_init_array+0x60>
   11590:	0000                	unimp
	...

0000000000011594 <memset>:
   11594:	00f00813          	li	a6,15
   11598:	00050713          	mv	a4,a0
   1159c:	02c87a63          	bleu	a2,a6,115d0 <memset+0x3c>
   115a0:	00f77793          	andi	a5,a4,15
   115a4:	0a079063          	bnez	a5,11644 <memset+0xb0>
   115a8:	06059e63          	bnez	a1,11624 <memset+0x90>
   115ac:	ff067693          	andi	a3,a2,-16
   115b0:	00f67613          	andi	a2,a2,15
   115b4:	00e686b3          	add	a3,a3,a4
   115b8:	00b73023          	sd	a1,0(a4)
   115bc:	00b73423          	sd	a1,8(a4)
   115c0:	01070713          	addi	a4,a4,16
   115c4:	fed76ae3          	bltu	a4,a3,115b8 <memset+0x24>
   115c8:	00061463          	bnez	a2,115d0 <memset+0x3c>
   115cc:	00008067          	ret
   115d0:	40c806b3          	sub	a3,a6,a2
   115d4:	00269693          	slli	a3,a3,0x2
   115d8:	00000297          	auipc	t0,0x0
   115dc:	005686b3          	add	a3,a3,t0
   115e0:	00c68067          	jr	12(a3)
   115e4:	00b70723          	sb	a1,14(a4)
   115e8:	00b706a3          	sb	a1,13(a4)
   115ec:	00b70623          	sb	a1,12(a4)
   115f0:	00b705a3          	sb	a1,11(a4)
   115f4:	00b70523          	sb	a1,10(a4)
   115f8:	00b704a3          	sb	a1,9(a4)
   115fc:	00b70423          	sb	a1,8(a4)
   11600:	00b703a3          	sb	a1,7(a4)
   11604:	00b70323          	sb	a1,6(a4)
   11608:	00b702a3          	sb	a1,5(a4)
   1160c:	00b70223          	sb	a1,4(a4)
   11610:	00b701a3          	sb	a1,3(a4)
   11614:	00b70123          	sb	a1,2(a4)
   11618:	00b700a3          	sb	a1,1(a4)
   1161c:	00b70023          	sb	a1,0(a4)
   11620:	00008067          	ret
   11624:	0ff5f593          	andi	a1,a1,255
   11628:	00859693          	slli	a3,a1,0x8
   1162c:	00d5e5b3          	or	a1,a1,a3
   11630:	01059693          	slli	a3,a1,0x10
   11634:	00d5e5b3          	or	a1,a1,a3
   11638:	02059693          	slli	a3,a1,0x20
   1163c:	00d5e5b3          	or	a1,a1,a3
   11640:	f6dff06f          	j	115ac <memset+0x18>
   11644:	00279693          	slli	a3,a5,0x2
   11648:	00000297          	auipc	t0,0x0
   1164c:	005686b3          	add	a3,a3,t0
   11650:	00008293          	mv	t0,ra
   11654:	f98680e7          	jalr	-104(a3)
   11658:	00028093          	mv	ra,t0
   1165c:	ff078793          	addi	a5,a5,-16
   11660:	40f70733          	sub	a4,a4,a5
   11664:	00f60633          	add	a2,a2,a5
   11668:	f6c874e3          	bleu	a2,a6,115d0 <memset+0x3c>
   1166c:	f3dff06f          	j	115a8 <memset+0x14>

0000000000011670 <__register_exitproc>:
   11670:	000127b7          	lui	a5,0x12
   11674:	7d87b703          	ld	a4,2008(a5) # 127d8 <_global_impure_ptr>
   11678:	00050313          	mv	t1,a0
   1167c:	1f873783          	ld	a5,504(a4)
   11680:	00079663          	bnez	a5,1168c <__register_exitproc+0x1c>
   11684:	20070793          	addi	a5,a4,512
   11688:	1ef73c23          	sd	a5,504(a4)
   1168c:	0087a703          	lw	a4,8(a5)
   11690:	01f00813          	li	a6,31
   11694:	fff00513          	li	a0,-1
   11698:	04e84e63          	blt	a6,a4,116f4 <__register_exitproc+0x84>
   1169c:	02030e63          	beqz	t1,116d8 <__register_exitproc+0x68>
   116a0:	00371813          	slli	a6,a4,0x3
   116a4:	01078833          	add	a6,a5,a6
   116a8:	10c83823          	sd	a2,272(a6)
   116ac:	3107a883          	lw	a7,784(a5)
   116b0:	00100613          	li	a2,1
   116b4:	00e6163b          	sllw	a2,a2,a4
   116b8:	00c8e8b3          	or	a7,a7,a2
   116bc:	3117a823          	sw	a7,784(a5)
   116c0:	20d83823          	sd	a3,528(a6)
   116c4:	00200693          	li	a3,2
   116c8:	00d31863          	bne	t1,a3,116d8 <__register_exitproc+0x68>
   116cc:	3147a683          	lw	a3,788(a5)
   116d0:	00c6e633          	or	a2,a3,a2
   116d4:	30c7aa23          	sw	a2,788(a5)
   116d8:	0017069b          	addiw	a3,a4,1
   116dc:	00270713          	addi	a4,a4,2
   116e0:	00371713          	slli	a4,a4,0x3
   116e4:	00d7a423          	sw	a3,8(a5)
   116e8:	00e787b3          	add	a5,a5,a4
   116ec:	00b7b023          	sd	a1,0(a5)
   116f0:	00000513          	li	a0,0
   116f4:	00008067          	ret
   116f8:	0000                	unimp
	...

00000000000116fc <__call_exitprocs>:
   116fc:	fb010113          	addi	sp,sp,-80
   11700:	000127b7          	lui	a5,0x12
   11704:	03313423          	sd	s3,40(sp)
   11708:	7d87b983          	ld	s3,2008(a5) # 127d8 <_global_impure_ptr>
   1170c:	03413023          	sd	s4,32(sp)
   11710:	01513c23          	sd	s5,24(sp)
   11714:	01613823          	sd	s6,16(sp)
   11718:	04113423          	sd	ra,72(sp)
   1171c:	04813023          	sd	s0,64(sp)
   11720:	02913c23          	sd	s1,56(sp)
   11724:	03213823          	sd	s2,48(sp)
   11728:	01713423          	sd	s7,8(sp)
   1172c:	00050a93          	mv	s5,a0
   11730:	00058a13          	mv	s4,a1
   11734:	00100b13          	li	s6,1
   11738:	1f89b403          	ld	s0,504(s3)
   1173c:	00040c63          	beqz	s0,11754 <__call_exitprocs+0x58>
   11740:	00842483          	lw	s1,8(s0)
   11744:	fff4849b          	addiw	s1,s1,-1
   11748:	00349913          	slli	s2,s1,0x3
   1174c:	01240933          	add	s2,s0,s2
   11750:	0204d863          	bgez	s1,11780 <__call_exitprocs+0x84>
   11754:	04813083          	ld	ra,72(sp)
   11758:	04013403          	ld	s0,64(sp)
   1175c:	03813483          	ld	s1,56(sp)
   11760:	03013903          	ld	s2,48(sp)
   11764:	02813983          	ld	s3,40(sp)
   11768:	02013a03          	ld	s4,32(sp)
   1176c:	01813a83          	ld	s5,24(sp)
   11770:	01013b03          	ld	s6,16(sp)
   11774:	00813b83          	ld	s7,8(sp)
   11778:	05010113          	addi	sp,sp,80
   1177c:	00008067          	ret
   11780:	000a0c63          	beqz	s4,11798 <__call_exitprocs+0x9c>
   11784:	21093783          	ld	a5,528(s2)
   11788:	01478863          	beq	a5,s4,11798 <__call_exitprocs+0x9c>
   1178c:	fff4849b          	addiw	s1,s1,-1
   11790:	ff890913          	addi	s2,s2,-8
   11794:	fbdff06f          	j	11750 <__call_exitprocs+0x54>
   11798:	00842783          	lw	a5,8(s0)
   1179c:	01093683          	ld	a3,16(s2)
   117a0:	fff7879b          	addiw	a5,a5,-1
   117a4:	02979e63          	bne	a5,s1,117e0 <__call_exitprocs+0xe4>
   117a8:	00942423          	sw	s1,8(s0)
   117ac:	fe0680e3          	beqz	a3,1178c <__call_exitprocs+0x90>
   117b0:	31042703          	lw	a4,784(s0)
   117b4:	009b163b          	sllw	a2,s6,s1
   117b8:	00842b83          	lw	s7,8(s0)
   117bc:	00c77733          	and	a4,a4,a2
   117c0:	0007071b          	sext.w	a4,a4
   117c4:	02071263          	bnez	a4,117e8 <__call_exitprocs+0xec>
   117c8:	000680e7          	jalr	a3
   117cc:	00842703          	lw	a4,8(s0)
   117d0:	1f89b783          	ld	a5,504(s3)
   117d4:	f77712e3          	bne	a4,s7,11738 <__call_exitprocs+0x3c>
   117d8:	faf40ae3          	beq	s0,a5,1178c <__call_exitprocs+0x90>
   117dc:	f5dff06f          	j	11738 <__call_exitprocs+0x3c>
   117e0:	00093823          	sd	zero,16(s2)
   117e4:	fc9ff06f          	j	117ac <__call_exitprocs+0xb0>
   117e8:	31442783          	lw	a5,788(s0)
   117ec:	11093583          	ld	a1,272(s2)
   117f0:	00c7f7b3          	and	a5,a5,a2
   117f4:	0007879b          	sext.w	a5,a5
   117f8:	00079863          	bnez	a5,11808 <__call_exitprocs+0x10c>
   117fc:	000a8513          	mv	a0,s5
   11800:	000680e7          	jalr	a3
   11804:	fc9ff06f          	j	117cc <__call_exitprocs+0xd0>
   11808:	00058513          	mv	a0,a1
   1180c:	000680e7          	jalr	a3
   11810:	fbdff06f          	j	117cc <__call_exitprocs+0xd0>
   11814:	0000                	unimp
	...

0000000000011818 <conv_stat>:
   11818:	0005b783          	ld	a5,0(a1)
   1181c:	00f51023          	sh	a5,0(a0)
   11820:	0085b783          	ld	a5,8(a1)
   11824:	00f51123          	sh	a5,2(a0)
   11828:	0105a783          	lw	a5,16(a1)
   1182c:	00f52223          	sw	a5,4(a0)
   11830:	0145a783          	lw	a5,20(a1)
   11834:	00f51423          	sh	a5,8(a0)
   11838:	0185a783          	lw	a5,24(a1)
   1183c:	00f51523          	sh	a5,10(a0)
   11840:	01c5a783          	lw	a5,28(a1)
   11844:	00f51623          	sh	a5,12(a0)
   11848:	0205b783          	ld	a5,32(a1)
   1184c:	00f51723          	sh	a5,14(a0)
   11850:	0305b783          	ld	a5,48(a1)
   11854:	00f53823          	sd	a5,16(a0)
   11858:	0405b783          	ld	a5,64(a1)
   1185c:	04f53823          	sd	a5,80(a0)
   11860:	0385a783          	lw	a5,56(a1)
   11864:	04f53423          	sd	a5,72(a0)
   11868:	0485b783          	ld	a5,72(a1)
   1186c:	00f53c23          	sd	a5,24(a0)
   11870:	0585b783          	ld	a5,88(a1)
   11874:	02f53423          	sd	a5,40(a0)
   11878:	0685b783          	ld	a5,104(a1)
   1187c:	02f53c23          	sd	a5,56(a0)
   11880:	00008067          	ret

0000000000011884 <__syscall_error>:
   11884:	ff010113          	addi	sp,sp,-16
   11888:	00813023          	sd	s0,0(sp)
   1188c:	00113423          	sd	ra,8(sp)
   11890:	00050413          	mv	s0,a0
   11894:	00000097          	auipc	ra,0x0
   11898:	5f8080e7          	jalr	1528(ra) # 11e8c <__errno>
   1189c:	408007bb          	negw	a5,s0
   118a0:	00813083          	ld	ra,8(sp)
   118a4:	00013403          	ld	s0,0(sp)
   118a8:	00f52023          	sw	a5,0(a0)
   118ac:	fff00513          	li	a0,-1
   118b0:	01010113          	addi	sp,sp,16
   118b4:	00008067          	ret

00000000000118b8 <__internal_syscall>:
   118b8:	00050893          	mv	a7,a0
   118bc:	00058513          	mv	a0,a1
   118c0:	00060593          	mv	a1,a2
   118c4:	00068613          	mv	a2,a3
   118c8:	00070693          	mv	a3,a4
   118cc:	00000073          	ecall
   118d0:	00055663          	bgez	a0,118dc <__internal_syscall+0x24>
   118d4:	00000317          	auipc	t1,0x0
   118d8:	fb030067          	jr	-80(t1) # 11884 <__syscall_error>
   118dc:	00008067          	ret

00000000000118e0 <open>:
   118e0:	ff010113          	addi	sp,sp,-16
   118e4:	00060693          	mv	a3,a2
   118e8:	00000713          	li	a4,0
   118ec:	00058613          	mv	a2,a1
   118f0:	00050593          	mv	a1,a0
   118f4:	40000513          	li	a0,1024
   118f8:	00113423          	sd	ra,8(sp)
   118fc:	00000097          	auipc	ra,0x0
   11900:	fbc080e7          	jalr	-68(ra) # 118b8 <__internal_syscall>
   11904:	00813083          	ld	ra,8(sp)
   11908:	0005051b          	sext.w	a0,a0
   1190c:	01010113          	addi	sp,sp,16
   11910:	00008067          	ret

0000000000011914 <openat>:
   11914:	ff010113          	addi	sp,sp,-16
   11918:	00068713          	mv	a4,a3
   1191c:	00060693          	mv	a3,a2
   11920:	00058613          	mv	a2,a1
   11924:	00050593          	mv	a1,a0
   11928:	03800513          	li	a0,56
   1192c:	00113423          	sd	ra,8(sp)
   11930:	f89ff0ef          	jal	ra,118b8 <__internal_syscall>
   11934:	00813083          	ld	ra,8(sp)
   11938:	0005051b          	sext.w	a0,a0
   1193c:	01010113          	addi	sp,sp,16
   11940:	00008067          	ret

0000000000011944 <lseek>:
   11944:	00060693          	mv	a3,a2
   11948:	00000713          	li	a4,0
   1194c:	00058613          	mv	a2,a1
   11950:	00050593          	mv	a1,a0
   11954:	03e00513          	li	a0,62
   11958:	00000317          	auipc	t1,0x0
   1195c:	f6030067          	jr	-160(t1) # 118b8 <__internal_syscall>

0000000000011960 <read>:
   11960:	00060693          	mv	a3,a2
   11964:	00000713          	li	a4,0
   11968:	00058613          	mv	a2,a1
   1196c:	00050593          	mv	a1,a0
   11970:	03f00513          	li	a0,63
   11974:	f45ff06f          	j	118b8 <__internal_syscall>

0000000000011978 <write>:
   11978:	00060693          	mv	a3,a2
   1197c:	00000713          	li	a4,0
   11980:	00058613          	mv	a2,a1
   11984:	00050593          	mv	a1,a0
   11988:	04000513          	li	a0,64
   1198c:	00000317          	auipc	t1,0x0
   11990:	f2c30067          	jr	-212(t1) # 118b8 <__internal_syscall>

0000000000011994 <fstat>:
   11994:	f6010113          	addi	sp,sp,-160
   11998:	08913423          	sd	s1,136(sp)
   1199c:	00010613          	mv	a2,sp
   119a0:	00058493          	mv	s1,a1
   119a4:	00000713          	li	a4,0
   119a8:	00050593          	mv	a1,a0
   119ac:	00000693          	li	a3,0
   119b0:	05000513          	li	a0,80
   119b4:	08113c23          	sd	ra,152(sp)
   119b8:	08813823          	sd	s0,144(sp)
   119bc:	efdff0ef          	jal	ra,118b8 <__internal_syscall>
   119c0:	00050413          	mv	s0,a0
   119c4:	00010593          	mv	a1,sp
   119c8:	00048513          	mv	a0,s1
   119cc:	e4dff0ef          	jal	ra,11818 <conv_stat>
   119d0:	0004051b          	sext.w	a0,s0
   119d4:	09813083          	ld	ra,152(sp)
   119d8:	09013403          	ld	s0,144(sp)
   119dc:	08813483          	ld	s1,136(sp)
   119e0:	0a010113          	addi	sp,sp,160
   119e4:	00008067          	ret

00000000000119e8 <stat>:
   119e8:	f6010113          	addi	sp,sp,-160
   119ec:	08913423          	sd	s1,136(sp)
   119f0:	00010613          	mv	a2,sp
   119f4:	00058493          	mv	s1,a1
   119f8:	00000713          	li	a4,0
   119fc:	00050593          	mv	a1,a0
   11a00:	00000693          	li	a3,0
   11a04:	40e00513          	li	a0,1038
   11a08:	08113c23          	sd	ra,152(sp)
   11a0c:	08813823          	sd	s0,144(sp)
   11a10:	00000097          	auipc	ra,0x0
   11a14:	ea8080e7          	jalr	-344(ra) # 118b8 <__internal_syscall>
   11a18:	00050413          	mv	s0,a0
   11a1c:	00010593          	mv	a1,sp
   11a20:	00048513          	mv	a0,s1
   11a24:	00000097          	auipc	ra,0x0
   11a28:	df4080e7          	jalr	-524(ra) # 11818 <conv_stat>
   11a2c:	0004051b          	sext.w	a0,s0
   11a30:	09813083          	ld	ra,152(sp)
   11a34:	09013403          	ld	s0,144(sp)
   11a38:	08813483          	ld	s1,136(sp)
   11a3c:	0a010113          	addi	sp,sp,160
   11a40:	00008067          	ret

0000000000011a44 <lstat>:
   11a44:	f6010113          	addi	sp,sp,-160
   11a48:	08913423          	sd	s1,136(sp)
   11a4c:	00010613          	mv	a2,sp
   11a50:	00058493          	mv	s1,a1
   11a54:	00000713          	li	a4,0
   11a58:	00050593          	mv	a1,a0
   11a5c:	00000693          	li	a3,0
   11a60:	40f00513          	li	a0,1039
   11a64:	08113c23          	sd	ra,152(sp)
   11a68:	08813823          	sd	s0,144(sp)
   11a6c:	e4dff0ef          	jal	ra,118b8 <__internal_syscall>
   11a70:	00050413          	mv	s0,a0
   11a74:	00010593          	mv	a1,sp
   11a78:	00048513          	mv	a0,s1
   11a7c:	d9dff0ef          	jal	ra,11818 <conv_stat>
   11a80:	0004051b          	sext.w	a0,s0
   11a84:	09813083          	ld	ra,152(sp)
   11a88:	09013403          	ld	s0,144(sp)
   11a8c:	08813483          	ld	s1,136(sp)
   11a90:	0a010113          	addi	sp,sp,160
   11a94:	00008067          	ret

0000000000011a98 <fstatat>:
   11a98:	f6010113          	addi	sp,sp,-160
   11a9c:	08913423          	sd	s1,136(sp)
   11aa0:	00068713          	mv	a4,a3
   11aa4:	00060493          	mv	s1,a2
   11aa8:	00010693          	mv	a3,sp
   11aac:	00058613          	mv	a2,a1
   11ab0:	00050593          	mv	a1,a0
   11ab4:	04f00513          	li	a0,79
   11ab8:	08113c23          	sd	ra,152(sp)
   11abc:	08813823          	sd	s0,144(sp)
   11ac0:	00000097          	auipc	ra,0x0
   11ac4:	df8080e7          	jalr	-520(ra) # 118b8 <__internal_syscall>
   11ac8:	00050413          	mv	s0,a0
   11acc:	00010593          	mv	a1,sp
   11ad0:	00048513          	mv	a0,s1
   11ad4:	00000097          	auipc	ra,0x0
   11ad8:	d44080e7          	jalr	-700(ra) # 11818 <conv_stat>
   11adc:	0004051b          	sext.w	a0,s0
   11ae0:	09813083          	ld	ra,152(sp)
   11ae4:	09013403          	ld	s0,144(sp)
   11ae8:	08813483          	ld	s1,136(sp)
   11aec:	0a010113          	addi	sp,sp,160
   11af0:	00008067          	ret

0000000000011af4 <access>:
   11af4:	ff010113          	addi	sp,sp,-16
   11af8:	00058613          	mv	a2,a1
   11afc:	00000713          	li	a4,0
   11b00:	00050593          	mv	a1,a0
   11b04:	00000693          	li	a3,0
   11b08:	40900513          	li	a0,1033
   11b0c:	00113423          	sd	ra,8(sp)
   11b10:	da9ff0ef          	jal	ra,118b8 <__internal_syscall>
   11b14:	00813083          	ld	ra,8(sp)
   11b18:	0005051b          	sext.w	a0,a0
   11b1c:	01010113          	addi	sp,sp,16
   11b20:	00008067          	ret

0000000000011b24 <faccessat>:
   11b24:	ff010113          	addi	sp,sp,-16
   11b28:	00068713          	mv	a4,a3
   11b2c:	00060693          	mv	a3,a2
   11b30:	00058613          	mv	a2,a1
   11b34:	00050593          	mv	a1,a0
   11b38:	03000513          	li	a0,48
   11b3c:	00113423          	sd	ra,8(sp)
   11b40:	00000097          	auipc	ra,0x0
   11b44:	d78080e7          	jalr	-648(ra) # 118b8 <__internal_syscall>
   11b48:	00813083          	ld	ra,8(sp)
   11b4c:	0005051b          	sext.w	a0,a0
   11b50:	01010113          	addi	sp,sp,16
   11b54:	00008067          	ret

0000000000011b58 <close>:
   11b58:	ff010113          	addi	sp,sp,-16
   11b5c:	00050593          	mv	a1,a0
   11b60:	00000713          	li	a4,0
   11b64:	00000693          	li	a3,0
   11b68:	00000613          	li	a2,0
   11b6c:	03900513          	li	a0,57
   11b70:	00113423          	sd	ra,8(sp)
   11b74:	d45ff0ef          	jal	ra,118b8 <__internal_syscall>
   11b78:	00813083          	ld	ra,8(sp)
   11b7c:	0005051b          	sext.w	a0,a0
   11b80:	01010113          	addi	sp,sp,16
   11b84:	00008067          	ret

0000000000011b88 <link>:
   11b88:	ff010113          	addi	sp,sp,-16
   11b8c:	00058613          	mv	a2,a1
   11b90:	00000713          	li	a4,0
   11b94:	00050593          	mv	a1,a0
   11b98:	00000693          	li	a3,0
   11b9c:	40100513          	li	a0,1025
   11ba0:	00113423          	sd	ra,8(sp)
   11ba4:	00000097          	auipc	ra,0x0
   11ba8:	d14080e7          	jalr	-748(ra) # 118b8 <__internal_syscall>
   11bac:	00813083          	ld	ra,8(sp)
   11bb0:	0005051b          	sext.w	a0,a0
   11bb4:	01010113          	addi	sp,sp,16
   11bb8:	00008067          	ret

0000000000011bbc <unlink>:
   11bbc:	ff010113          	addi	sp,sp,-16
   11bc0:	00050593          	mv	a1,a0
   11bc4:	00000713          	li	a4,0
   11bc8:	00000693          	li	a3,0
   11bcc:	00000613          	li	a2,0
   11bd0:	40200513          	li	a0,1026
   11bd4:	00113423          	sd	ra,8(sp)
   11bd8:	ce1ff0ef          	jal	ra,118b8 <__internal_syscall>
   11bdc:	00813083          	ld	ra,8(sp)
   11be0:	0005051b          	sext.w	a0,a0
   11be4:	01010113          	addi	sp,sp,16
   11be8:	00008067          	ret

0000000000011bec <execve>:
   11bec:	ff010113          	addi	sp,sp,-16
   11bf0:	00113423          	sd	ra,8(sp)
   11bf4:	00000097          	auipc	ra,0x0
   11bf8:	298080e7          	jalr	664(ra) # 11e8c <__errno>
   11bfc:	00813083          	ld	ra,8(sp)
   11c00:	00c00793          	li	a5,12
   11c04:	00f52023          	sw	a5,0(a0)
   11c08:	fff00513          	li	a0,-1
   11c0c:	01010113          	addi	sp,sp,16
   11c10:	00008067          	ret

0000000000011c14 <fork>:
   11c14:	ff010113          	addi	sp,sp,-16
   11c18:	00113423          	sd	ra,8(sp)
   11c1c:	270000ef          	jal	ra,11e8c <__errno>
   11c20:	00813083          	ld	ra,8(sp)
   11c24:	00b00793          	li	a5,11
   11c28:	00f52023          	sw	a5,0(a0)
   11c2c:	fff00513          	li	a0,-1
   11c30:	01010113          	addi	sp,sp,16
   11c34:	00008067          	ret

0000000000011c38 <getpid>:
   11c38:	00100513          	li	a0,1
   11c3c:	00008067          	ret

0000000000011c40 <kill>:
   11c40:	ff010113          	addi	sp,sp,-16
   11c44:	00113423          	sd	ra,8(sp)
   11c48:	244000ef          	jal	ra,11e8c <__errno>
   11c4c:	00813083          	ld	ra,8(sp)
   11c50:	01600793          	li	a5,22
   11c54:	00f52023          	sw	a5,0(a0)
   11c58:	fff00513          	li	a0,-1
   11c5c:	01010113          	addi	sp,sp,16
   11c60:	00008067          	ret

0000000000011c64 <wait>:
   11c64:	ff010113          	addi	sp,sp,-16
   11c68:	00113423          	sd	ra,8(sp)
   11c6c:	00000097          	auipc	ra,0x0
   11c70:	220080e7          	jalr	544(ra) # 11e8c <__errno>
   11c74:	00813083          	ld	ra,8(sp)
   11c78:	00a00793          	li	a5,10
   11c7c:	00f52023          	sw	a5,0(a0)
   11c80:	fff00513          	li	a0,-1
   11c84:	01010113          	addi	sp,sp,16
   11c88:	00008067          	ret

0000000000011c8c <isatty>:
   11c8c:	f8010113          	addi	sp,sp,-128
   11c90:	00810593          	addi	a1,sp,8
   11c94:	06113c23          	sd	ra,120(sp)
   11c98:	cfdff0ef          	jal	ra,11994 <fstat>
   11c9c:	fff00793          	li	a5,-1
   11ca0:	00f50863          	beq	a0,a5,11cb0 <isatty+0x24>
   11ca4:	00c12503          	lw	a0,12(sp)
   11ca8:	40d5551b          	sraiw	a0,a0,0xd
   11cac:	00157513          	andi	a0,a0,1
   11cb0:	07813083          	ld	ra,120(sp)
   11cb4:	08010113          	addi	sp,sp,128
   11cb8:	00008067          	ret

0000000000011cbc <gettimeofday>:
   11cbc:	ff010113          	addi	sp,sp,-16
   11cc0:	00050593          	mv	a1,a0
   11cc4:	00000713          	li	a4,0
   11cc8:	00000693          	li	a3,0
   11ccc:	00000613          	li	a2,0
   11cd0:	0a900513          	li	a0,169
   11cd4:	00113423          	sd	ra,8(sp)
   11cd8:	00000097          	auipc	ra,0x0
   11cdc:	be0080e7          	jalr	-1056(ra) # 118b8 <__internal_syscall>
   11ce0:	00813083          	ld	ra,8(sp)
   11ce4:	0005051b          	sext.w	a0,a0
   11ce8:	01010113          	addi	sp,sp,16
   11cec:	00008067          	ret

0000000000011cf0 <times>:
   11cf0:	fd010113          	addi	sp,sp,-48
   11cf4:	02813023          	sd	s0,32(sp)
   11cf8:	00050413          	mv	s0,a0
   11cfc:	8581b783          	ld	a5,-1960(gp) # 12828 <t0.2572>
   11d00:	00913c23          	sd	s1,24(sp)
   11d04:	02113423          	sd	ra,40(sp)
   11d08:	85818493          	addi	s1,gp,-1960 # 12828 <t0.2572>
   11d0c:	00079a63          	bnez	a5,11d20 <times+0x30>
   11d10:	00000593          	li	a1,0
   11d14:	85818513          	addi	a0,gp,-1960 # 12828 <t0.2572>
   11d18:	00000097          	auipc	ra,0x0
   11d1c:	fa4080e7          	jalr	-92(ra) # 11cbc <gettimeofday>
   11d20:	00000593          	li	a1,0
   11d24:	00010513          	mv	a0,sp
   11d28:	00000097          	auipc	ra,0x0
   11d2c:	f94080e7          	jalr	-108(ra) # 11cbc <gettimeofday>
   11d30:	0004b783          	ld	a5,0(s1)
   11d34:	00013503          	ld	a0,0(sp)
   11d38:	000f45b7          	lui	a1,0xf4
   11d3c:	24058593          	addi	a1,a1,576 # f4240 <__global_pointer$+0xe1270>
   11d40:	40f50533          	sub	a0,a0,a5
   11d44:	e74ff0ef          	jal	ra,113b8 <__muldi3>
   11d48:	0084b703          	ld	a4,8(s1)
   11d4c:	00813783          	ld	a5,8(sp)
   11d50:	00043823          	sd	zero,16(s0)
   11d54:	00043c23          	sd	zero,24(s0)
   11d58:	40e787b3          	sub	a5,a5,a4
   11d5c:	00f50533          	add	a0,a0,a5
   11d60:	00a43023          	sd	a0,0(s0)
   11d64:	00043423          	sd	zero,8(s0)
   11d68:	02813083          	ld	ra,40(sp)
   11d6c:	02013403          	ld	s0,32(sp)
   11d70:	01813483          	ld	s1,24(sp)
   11d74:	fff00513          	li	a0,-1
   11d78:	03010113          	addi	sp,sp,48
   11d7c:	00008067          	ret

0000000000011d80 <ftime>:
   11d80:	00051423          	sh	zero,8(a0)
   11d84:	00053023          	sd	zero,0(a0)
   11d88:	00000513          	li	a0,0
   11d8c:	00008067          	ret

0000000000011d90 <utime>:
   11d90:	fff00513          	li	a0,-1
   11d94:	00008067          	ret

0000000000011d98 <chown>:
   11d98:	fff00513          	li	a0,-1
   11d9c:	00008067          	ret

0000000000011da0 <chmod>:
   11da0:	fff00513          	li	a0,-1
   11da4:	00008067          	ret

0000000000011da8 <chdir>:
   11da8:	fff00513          	li	a0,-1
   11dac:	00008067          	ret

0000000000011db0 <getcwd>:
   11db0:	00000513          	li	a0,0
   11db4:	00008067          	ret

0000000000011db8 <sysconf>:
   11db8:	00200793          	li	a5,2
   11dbc:	00f50663          	beq	a0,a5,11dc8 <sysconf+0x10>
   11dc0:	fff00513          	li	a0,-1
   11dc4:	00008067          	ret
   11dc8:	000f4537          	lui	a0,0xf4
   11dcc:	24050513          	addi	a0,a0,576 # f4240 <__global_pointer$+0xe1270>
   11dd0:	00008067          	ret

0000000000011dd4 <sbrk>:
   11dd4:	fe010113          	addi	sp,sp,-32
   11dd8:	00813823          	sd	s0,16(sp)
   11ddc:	8181b783          	ld	a5,-2024(gp) # 127e8 <_edata>
   11de0:	00913423          	sd	s1,8(sp)
   11de4:	00113c23          	sd	ra,24(sp)
   11de8:	00050493          	mv	s1,a0
   11dec:	04079063          	bnez	a5,11e2c <sbrk+0x58>
   11df0:	00000713          	li	a4,0
   11df4:	00000693          	li	a3,0
   11df8:	00000613          	li	a2,0
   11dfc:	00000593          	li	a1,0
   11e00:	0d600513          	li	a0,214
   11e04:	ab5ff0ef          	jal	ra,118b8 <__internal_syscall>
   11e08:	fff00793          	li	a5,-1
   11e0c:	00f51e63          	bne	a0,a5,11e28 <sbrk+0x54>
   11e10:	fff00513          	li	a0,-1
   11e14:	01813083          	ld	ra,24(sp)
   11e18:	01013403          	ld	s0,16(sp)
   11e1c:	00813483          	ld	s1,8(sp)
   11e20:	02010113          	addi	sp,sp,32
   11e24:	00008067          	ret
   11e28:	80a1bc23          	sd	a0,-2024(gp) # 127e8 <_edata>
   11e2c:	8181b583          	ld	a1,-2024(gp) # 127e8 <_edata>
   11e30:	00000713          	li	a4,0
   11e34:	00000693          	li	a3,0
   11e38:	00b485b3          	add	a1,s1,a1
   11e3c:	00000613          	li	a2,0
   11e40:	0d600513          	li	a0,214
   11e44:	a75ff0ef          	jal	ra,118b8 <__internal_syscall>
   11e48:	8181b783          	ld	a5,-2024(gp) # 127e8 <_edata>
   11e4c:	00f484b3          	add	s1,s1,a5
   11e50:	fc9510e3          	bne	a0,s1,11e10 <sbrk+0x3c>
   11e54:	80a1bc23          	sd	a0,-2024(gp) # 127e8 <_edata>
   11e58:	00078513          	mv	a0,a5
   11e5c:	fb9ff06f          	j	11e14 <sbrk+0x40>

0000000000011e60 <_exit>:
   11e60:	ff010113          	addi	sp,sp,-16
   11e64:	00050593          	mv	a1,a0
   11e68:	00000713          	li	a4,0
   11e6c:	00000693          	li	a3,0
   11e70:	00000613          	li	a2,0
   11e74:	05d00513          	li	a0,93
   11e78:	00113423          	sd	ra,8(sp)
   11e7c:	00000097          	auipc	ra,0x0
   11e80:	a3c080e7          	jalr	-1476(ra) # 118b8 <__internal_syscall>
   11e84:	0000006f          	j	11e84 <_exit+0x24>
   11e88:	0000                	unimp
	...

0000000000011e8c <__errno>:
   11e8c:	8101b503          	ld	a0,-2032(gp) # 127e0 <_impure_ptr>
   11e90:	00008067          	ret
   11e94:	0000                	unimp
	...
